---
triple:          'arm64-apple-darwin'
binary-path:     '/Users/itaprac/Documents/School/Programowanie/Laby/Projekt semestralny/output'
relocations:
  - { offsetInCU: 0x2F5E, offset: 0x2F5E, size: 0x8, addend: 0x0, symName: __ZNSt3__124__put_character_sequenceB8ue170006IcNS_11char_traitsIcEEEERNS_13basic_ostreamIT_T0_EES7_PKS4_m, symObjAddr: 0x2E4, symBinAddr: 0x100003858, symSize: 0x1EC }
  - { offsetInCU: 0x48F5, offset: 0x48F5, size: 0x8, addend: 0x0, symName: __ZNSt3__1lsB8ue170006INS_11char_traitsIcEEEERNS_13basic_ostreamIcT_EES6_PKc, symObjAddr: 0xE8, symBinAddr: 0x10000365C, symSize: 0x48 }
  - { offsetInCU: 0x493B, offset: 0x493B, size: 0x8, addend: 0x0, symName: __ZNSt3__118__constexpr_strlenB8ue170006EPKc, symObjAddr: 0x2B4, symBinAddr: 0x100003828, symSize: 0x24 }
  - { offsetInCU: 0x4967, offset: 0x4967, size: 0x8, addend: 0x0, symName: __ZNSt3__116__pad_and_outputB8ue170006IcNS_11char_traitsIcEEEENS_19ostreambuf_iteratorIT_T0_EES6_PKS4_S8_S8_RNS_8ios_baseES4_, symObjAddr: 0x4EC, symBinAddr: 0x100003A60, symSize: 0x240 }
  - { offsetInCU: 0x4A36, offset: 0x4A36, size: 0x8, addend: 0x0, symName: __ZNSt3__112__to_addressB8ue170006IcEEPT_S2_, symObjAddr: 0x95C, symBinAddr: 0x100003ED0, symSize: 0x14 }
  - { offsetInCU: 0x4A9E, offset: 0x4A9E, size: 0x8, addend: 0x0, symName: __ZNSt3__19use_facetB8ue170006INS_5ctypeIcEEEERKT_RKNS_6localeE, symObjAddr: 0xC14, symBinAddr: 0x100004188, symSize: 0x2C }
  - { offsetInCU: 0x760A, offset: 0x760A, size: 0x8, addend: 0x0, symName: _main, symObjAddr: 0x0, symBinAddr: 0x100003574, symSize: 0xB4 }
  - { offsetInCU: 0x7628, offset: 0x7628, size: 0x8, addend: 0x0, symName: __ZNSt3__112basic_stringIcNS_11char_traitsIcEENS_9allocatorIcEEEC1B8ue170006ILi0EEEPKc, symObjAddr: 0xB4, symBinAddr: 0x100003628, symSize: 0x34 }
  - { offsetInCU: 0x7665, offset: 0x7665, size: 0x8, addend: 0x0, symName: __ZNSt3__112basic_stringIcNS_11char_traitsIcEENS_9allocatorIcEEEC2B8ue170006ILi0EEEPKc, symObjAddr: 0x130, symBinAddr: 0x1000036A4, symSize: 0x58 }
  - { offsetInCU: 0x76A7, offset: 0x76A7, size: 0x8, addend: 0x0, symName: __ZNSt3__117__compressed_pairINS_12basic_stringIcNS_11char_traitsIcEENS_9allocatorIcEEE5__repES5_EC1B8ue170006INS_18__default_init_tagESA_EEOT_OT0_, symObjAddr: 0x188, symBinAddr: 0x1000036FC, symSize: 0x3C }
  - { offsetInCU: 0x76FD, offset: 0x76FD, size: 0x8, addend: 0x0, symName: __ZNSt3__111char_traitsIcE6lengthB8ue170006EPKc, symObjAddr: 0x1C4, symBinAddr: 0x100003738, symSize: 0x34 }
  - { offsetInCU: 0x771F, offset: 0x771F, size: 0x8, addend: 0x0, symName: __ZNSt3__117__compressed_pairINS_12basic_stringIcNS_11char_traitsIcEENS_9allocatorIcEEE5__repES5_EC2B8ue170006INS_18__default_init_tagESA_EEOT_OT0_, symObjAddr: 0x1F8, symBinAddr: 0x10000376C, symSize: 0x3C }
  - { offsetInCU: 0x7775, offset: 0x7775, size: 0x8, addend: 0x0, symName: __ZNSt3__122__compressed_pair_elemINS_12basic_stringIcNS_11char_traitsIcEENS_9allocatorIcEEE5__repELi0ELb0EEC2B8ue170006ENS_18__default_init_tagE, symObjAddr: 0x234, symBinAddr: 0x1000037A8, symSize: 0x14 }
  - { offsetInCU: 0x77A7, offset: 0x77A7, size: 0x8, addend: 0x0, symName: __ZNSt3__122__compressed_pair_elemINS_9allocatorIcEELi1ELb1EEC2B8ue170006ENS_18__default_init_tagE, symObjAddr: 0x248, symBinAddr: 0x1000037BC, symSize: 0x2C }
  - { offsetInCU: 0x77D9, offset: 0x77D9, size: 0x8, addend: 0x0, symName: __ZNSt3__19allocatorIcEC2B8ue170006Ev, symObjAddr: 0x274, symBinAddr: 0x1000037E8, symSize: 0x2C }
  - { offsetInCU: 0x7801, offset: 0x7801, size: 0x8, addend: 0x0, symName: __ZNSt3__116__non_trivial_ifILb1ENS_9allocatorIcEEEC2B8ue170006Ev, symObjAddr: 0x2A0, symBinAddr: 0x100003814, symSize: 0x14 }
  - { offsetInCU: 0x7847, offset: 0x7847, size: 0x8, addend: 0x0, symName: __ZNKSt3__113basic_ostreamIcNS_11char_traitsIcEEE6sentrycvbB8ue170006Ev, symObjAddr: 0x4D0, symBinAddr: 0x100003A44, symSize: 0x1C }
  - { offsetInCU: 0x786B, offset: 0x786B, size: 0x8, addend: 0x0, symName: __ZNSt3__119ostreambuf_iteratorIcNS_11char_traitsIcEEEC1B8ue170006ERNS_13basic_ostreamIcS2_EE, symObjAddr: 0x72C, symBinAddr: 0x100003CA0, symSize: 0x34 }
  - { offsetInCU: 0x78A1, offset: 0x78A1, size: 0x8, addend: 0x0, symName: __ZNKSt3__18ios_base5flagsB8ue170006Ev, symObjAddr: 0x760, symBinAddr: 0x100003CD4, symSize: 0x18 }
  - { offsetInCU: 0x78C7, offset: 0x78C7, size: 0x8, addend: 0x0, symName: __ZNKSt3__19basic_iosIcNS_11char_traitsIcEEE4fillB8ue170006Ev, symObjAddr: 0x778, symBinAddr: 0x100003CEC, symSize: 0x64 }
  - { offsetInCU: 0x78ED, offset: 0x78ED, size: 0x8, addend: 0x0, symName: __ZNKSt3__119ostreambuf_iteratorIcNS_11char_traitsIcEEE6failedB8ue170006Ev, symObjAddr: 0x7DC, symBinAddr: 0x100003D50, symSize: 0x24 }
  - { offsetInCU: 0x7911, offset: 0x7911, size: 0x8, addend: 0x0, symName: __ZNSt3__19basic_iosIcNS_11char_traitsIcEEE8setstateB8ue170006Ej, symObjAddr: 0x800, symBinAddr: 0x100003D74, symSize: 0x2C }
  - { offsetInCU: 0x7944, offset: 0x7944, size: 0x8, addend: 0x0, symName: __ZNKSt3__18ios_base5widthB8ue170006Ev, symObjAddr: 0x82C, symBinAddr: 0x100003DA0, symSize: 0x18 }
  - { offsetInCU: 0x796A, offset: 0x796A, size: 0x8, addend: 0x0, symName: __ZNSt3__115basic_streambufIcNS_11char_traitsIcEEE5sputnB8ue170006EPKcl, symObjAddr: 0x844, symBinAddr: 0x100003DB8, symSize: 0x3C }
  - { offsetInCU: 0x79AA, offset: 0x79AA, size: 0x8, addend: 0x0, symName: __ZNSt3__112basic_stringIcNS_11char_traitsIcEENS_9allocatorIcEEEC1B8ue170006Emc, symObjAddr: 0x880, symBinAddr: 0x100003DF4, symSize: 0x3C }
  - { offsetInCU: 0x79F0, offset: 0x79F0, size: 0x8, addend: 0x0, symName: __ZNSt3__112basic_stringIcNS_11char_traitsIcEENS_9allocatorIcEEE4dataB8ue170006Ev, symObjAddr: 0x8BC, symBinAddr: 0x100003E30, symSize: 0x28 }
  - { offsetInCU: 0x7A14, offset: 0x7A14, size: 0x8, addend: 0x0, symName: __ZNSt3__18ios_base5widthB8ue170006El, symObjAddr: 0x8E4, symBinAddr: 0x100003E58, symSize: 0x2C }
  - { offsetInCU: 0x7A58, offset: 0x7A58, size: 0x8, addend: 0x0, symName: __ZNSt3__112basic_stringIcNS_11char_traitsIcEENS_9allocatorIcEEEC2B8ue170006Emc, symObjAddr: 0x910, symBinAddr: 0x100003E84, symSize: 0x4C }
  - { offsetInCU: 0x7A9E, offset: 0x7A9E, size: 0x8, addend: 0x0, symName: __ZNSt3__112basic_stringIcNS_11char_traitsIcEENS_9allocatorIcEEE13__get_pointerB8ue170006Ev, symObjAddr: 0x970, symBinAddr: 0x100003EE4, symSize: 0x54 }
  - { offsetInCU: 0x7AC2, offset: 0x7AC2, size: 0x8, addend: 0x0, symName: __ZNKSt3__112basic_stringIcNS_11char_traitsIcEENS_9allocatorIcEEE9__is_longB8ue170006Ev, symObjAddr: 0x9C4, symBinAddr: 0x100003F38, symSize: 0x38 }
  - { offsetInCU: 0x7AE6, offset: 0x7AE6, size: 0x8, addend: 0x0, symName: __ZNSt3__112basic_stringIcNS_11char_traitsIcEENS_9allocatorIcEEE18__get_long_pointerB8ue170006Ev, symObjAddr: 0x9FC, symBinAddr: 0x100003F70, symSize: 0x28 }
  - { offsetInCU: 0x7B0A, offset: 0x7B0A, size: 0x8, addend: 0x0, symName: __ZNSt3__112basic_stringIcNS_11char_traitsIcEENS_9allocatorIcEEE19__get_short_pointerB8ue170006Ev, symObjAddr: 0xA24, symBinAddr: 0x100003F98, symSize: 0x28 }
  - { offsetInCU: 0x7B2E, offset: 0x7B2E, size: 0x8, addend: 0x0, symName: __ZNKSt3__117__compressed_pairINS_12basic_stringIcNS_11char_traitsIcEENS_9allocatorIcEEE5__repES5_E5firstB8ue170006Ev, symObjAddr: 0xA4C, symBinAddr: 0x100003FC0, symSize: 0x24 }
  - { offsetInCU: 0x7B52, offset: 0x7B52, size: 0x8, addend: 0x0, symName: __ZNKSt3__122__compressed_pair_elemINS_12basic_stringIcNS_11char_traitsIcEENS_9allocatorIcEEE5__repELi0ELb0EE5__getB8ue170006Ev, symObjAddr: 0xA70, symBinAddr: 0x100003FE4, symSize: 0x14 }
  - { offsetInCU: 0x7B76, offset: 0x7B76, size: 0x8, addend: 0x0, symName: __ZNSt3__117__compressed_pairINS_12basic_stringIcNS_11char_traitsIcEENS_9allocatorIcEEE5__repES5_E5firstB8ue170006Ev, symObjAddr: 0xA84, symBinAddr: 0x100003FF8, symSize: 0x24 }
  - { offsetInCU: 0x7B9A, offset: 0x7B9A, size: 0x8, addend: 0x0, symName: __ZNSt3__122__compressed_pair_elemINS_12basic_stringIcNS_11char_traitsIcEENS_9allocatorIcEEE5__repELi0ELb0EE5__getB8ue170006Ev, symObjAddr: 0xAA8, symBinAddr: 0x10000401C, symSize: 0x14 }
  - { offsetInCU: 0x7BBE, offset: 0x7BBE, size: 0x8, addend: 0x0, symName: __ZNSt3__114pointer_traitsIPcE10pointer_toB8ue170006ERc, symObjAddr: 0xABC, symBinAddr: 0x100004030, symSize: 0x14 }
  - { offsetInCU: 0x7BE0, offset: 0x7BE0, size: 0x8, addend: 0x0, symName: __ZNSt3__119ostreambuf_iteratorIcNS_11char_traitsIcEEEC2B8ue170006ERNS_13basic_ostreamIcS2_EE, symObjAddr: 0xAD0, symBinAddr: 0x100004044, symSize: 0x54 }
  - { offsetInCU: 0x7C16, offset: 0x7C16, size: 0x8, addend: 0x0, symName: __ZNKSt3__19basic_iosIcNS_11char_traitsIcEEE5rdbufB8ue170006Ev, symObjAddr: 0xB24, symBinAddr: 0x100004098, symSize: 0x24 }
  - { offsetInCU: 0x7C3C, offset: 0x7C3C, size: 0x8, addend: 0x0, symName: __ZNKSt3__18ios_base5rdbufB8ue170006Ev, symObjAddr: 0xB48, symBinAddr: 0x1000040BC, symSize: 0x18 }
  - { offsetInCU: 0x7C60, offset: 0x7C60, size: 0x8, addend: 0x0, symName: __ZNSt3__111char_traitsIcE11eq_int_typeB8ue170006Eii, symObjAddr: 0xB60, symBinAddr: 0x1000040D4, symSize: 0x28 }
  - { offsetInCU: 0x7C92, offset: 0x7C92, size: 0x8, addend: 0x0, symName: __ZNSt3__111char_traitsIcE3eofB8ue170006Ev, symObjAddr: 0xB88, symBinAddr: 0x1000040FC, symSize: 0x8 }
  - { offsetInCU: 0x7CA5, offset: 0x7CA5, size: 0x8, addend: 0x0, symName: __ZNKSt3__19basic_iosIcNS_11char_traitsIcEEE5widenB8ue170006Ec, symObjAddr: 0xB90, symBinAddr: 0x100004104, symSize: 0x84 }
  - { offsetInCU: 0x7D11, offset: 0x7D11, size: 0x8, addend: 0x0, symName: __ZNKSt3__15ctypeIcE5widenB8ue170006Ec, symObjAddr: 0xC40, symBinAddr: 0x1000041B4, symSize: 0x38 }
  - { offsetInCU: 0x7D44, offset: 0x7D44, size: 0x8, addend: 0x0, symName: __ZNSt3__18ios_base8setstateB8ue170006Ej, symObjAddr: 0xC78, symBinAddr: 0x1000041EC, symSize: 0x34 }
  - { offsetInCU: 0x39, offset: 0x7DFD, size: 0x8, addend: 0x0, symName: __ZN10Biblioteka10bibliotekaE, symObjAddr: 0x42378, symBinAddr: 0x10001C870, symSize: 0x0 }
  - { offsetInCU: 0x5C1B, offset: 0xD9DF, size: 0x8, addend: 0x0, symName: __ZNSt3__17advanceB8ue170006IPK9CzytelnikllvEEvRT_T0_, symObjAddr: 0x61DC, symBinAddr: 0x100009804, symSize: 0x38 }
  - { offsetInCU: 0x5C89, offset: 0xDA4D, size: 0x8, addend: 0x0, symName: __ZNSt3__17advanceB8ue170006IP9CzytelnikllvEEvRT_T0_, symObjAddr: 0x6D1C, symBinAddr: 0x10000A344, symSize: 0x38 }
  - { offsetInCU: 0x7500, offset: 0xF2C4, size: 0x8, addend: 0x0, symName: __ZNSt3__1neB8ue170006IP9CzytelnikEEbRKNS_11__wrap_iterIT_EES7_, symObjAddr: 0xC94, symBinAddr: 0x100004E6C, symSize: 0x34 }
  - { offsetInCU: 0x7543, offset: 0xF307, size: 0x8, addend: 0x0, symName: __ZNSt3__17getlineB8ue170006IcNS_11char_traitsIcEENS_9allocatorIcEEEERNS_13basic_istreamIT_T0_EES9_RNS_12basic_stringIS6_S7_T1_EE, symObjAddr: 0x136C, symBinAddr: 0x100005510, symSize: 0x5C }
  - { offsetInCU: 0x759B, offset: 0xF35F, size: 0x8, addend: 0x0, symName: __ZNSt3__14endlB8ue170006IcNS_11char_traitsIcEEEERNS_13basic_ostreamIT_T0_EES7_, symObjAddr: 0x1468, symBinAddr: 0x10000560C, symSize: 0x58 }
  - { offsetInCU: 0x75FA, offset: 0xF3BE, size: 0x8, addend: 0x0, symName: __ZNSt3__1eqB8ue170006INS_9allocatorIcEEEEbRKNS_12basic_stringIcNS_11char_traitsIcEET_EES9_, symObjAddr: 0x21DC, symBinAddr: 0x100006378, symSize: 0x148 }
  - { offsetInCU: 0x766D, offset: 0xF431, size: 0x8, addend: 0x0, symName: __ZNSt3__1eqB8ue170006IcNS_11char_traitsIcEENS_9allocatorIcEEEEbRKNS_12basic_stringIT_T0_T1_EEPKS6_, symObjAddr: 0x28A4, symBinAddr: 0x100006A40, symSize: 0xAC }
  - { offsetInCU: 0x76D4, offset: 0xF498, size: 0x8, addend: 0x0, symName: __ZNSt3__1eqB8ue170006IP9CzytelnikEEbRKNS_11__wrap_iterIT_EES7_, symObjAddr: 0x2C6C, symBinAddr: 0x100006E08, symSize: 0x48 }
  - { offsetInCU: 0x7717, offset: 0xF4DB, size: 0x8, addend: 0x0, symName: __ZNSt3__119__libcpp_deallocateB8ue170006EPvmm, symObjAddr: 0x32C8, symBinAddr: 0x1000071B8, symSize: 0x60 }
  - { offsetInCU: 0x777E, offset: 0xF542, size: 0x8, addend: 0x0, symName: __ZNSt3__124__is_overaligned_for_newB8ue170006Em, symObjAddr: 0x3328, symBinAddr: 0x100007218, symSize: 0x20 }
  - { offsetInCU: 0x77AD, offset: 0xF571, size: 0x8, addend: 0x0, symName: __ZNSt3__127__do_deallocate_handle_sizeB8ue170006IJSt11align_val_tEEEvPvmDpT_, symObjAddr: 0x3348, symBinAddr: 0x100007238, symSize: 0x30 }
  - { offsetInCU: 0x7803, offset: 0xF5C7, size: 0x8, addend: 0x0, symName: __ZNSt3__127__do_deallocate_handle_sizeB8ue170006IJEEEvPvmDpT_, symObjAddr: 0x3378, symBinAddr: 0x100007268, symSize: 0x28 }
  - { offsetInCU: 0x7843, offset: 0xF607, size: 0x8, addend: 0x0, symName: __ZNSt3__124__libcpp_operator_deleteB8ue170006IJPvSt11align_val_tEEEvDpT_, symObjAddr: 0x33A0, symBinAddr: 0x100007290, symSize: 0x2C }
  - { offsetInCU: 0x7890, offset: 0xF654, size: 0x8, addend: 0x0, symName: __ZNSt3__124__libcpp_operator_deleteB8ue170006IJPvEEEvDpT_, symObjAddr: 0x33CC, symBinAddr: 0x1000072BC, symSize: 0x24 }
  - { offsetInCU: 0x78C8, offset: 0xF68C, size: 0x8, addend: 0x0, symName: __ZNSt3__17getlineB8ue170006IcNS_11char_traitsIcEENS_9allocatorIcEEEERNS_13basic_istreamIT_T0_EES9_RNS_12basic_stringIS6_S7_T1_EES6_, symObjAddr: 0x3D28, symBinAddr: 0x100007350, symSize: 0x238 }
  - { offsetInCU: 0x7B73, offset: 0xF937, size: 0x8, addend: 0x0, symName: __ZNSt3__112__to_addressB8ue170006IKcEEPT_S3_, symObjAddr: 0x4350, symBinAddr: 0x100007978, symSize: 0x14 }
  - { offsetInCU: 0x7BDB, offset: 0xF99F, size: 0x8, addend: 0x0, symName: __ZNSt3__122__make_exception_guardB8ue170006INS_6vectorI9CzytelnikNS_9allocatorIS2_EEE16__destroy_vectorEEENS_28__exception_guard_exceptionsIT_EES8_, symObjAddr: 0x468C, symBinAddr: 0x100007CB4, symSize: 0x40 }
  - { offsetInCU: 0x7C10, offset: 0xF9D4, size: 0x8, addend: 0x0, symName: __ZNSt3__119__allocate_at_leastB8ue170006INS_9allocatorI9CzytelnikEEEENS_19__allocation_resultINS_16allocator_traitsIT_E7pointerEEERS6_m, symObjAddr: 0x497C, symBinAddr: 0x100007FA4, symSize: 0x40 }
  - { offsetInCU: 0x7C53, offset: 0xFA17, size: 0x8, addend: 0x0, symName: __ZNSt3__13minB8ue170006ImEERKT_S3_S3_, symObjAddr: 0x4AD4, symBinAddr: 0x1000080FC, symSize: 0x2C }
  - { offsetInCU: 0x7E80, offset: 0xFC44, size: 0x8, addend: 0x0, symName: __ZNSt3__13minB8ue170006ImNS_6__lessIvvEEEERKT_S5_S5_T0_, symObjAddr: 0x4B38, symBinAddr: 0x100008160, symSize: 0x54 }
  - { offsetInCU: 0x7F21, offset: 0xFCE5, size: 0x8, addend: 0x0, symName: __ZNSt3__120__throw_length_errorB8ue170006EPKc, symObjAddr: 0x4BE8, symBinAddr: 0x100008210, symSize: 0x64 }
  - { offsetInCU: 0x7F4C, offset: 0xFD10, size: 0x8, addend: 0x0, symName: __ZNSt3__117__libcpp_allocateB8ue170006Emm, symObjAddr: 0x4D5C, symBinAddr: 0x100008384, symSize: 0x60 }
  - { offsetInCU: 0x7FA7, offset: 0xFD6B, size: 0x8, addend: 0x0, symName: __ZNSt3__121__libcpp_operator_newB8ue170006IJmSt11align_val_tEEEPvDpT_, symObjAddr: 0x4DBC, symBinAddr: 0x1000083E4, symSize: 0x2C }
  - { offsetInCU: 0x7FF7, offset: 0xFDBB, size: 0x8, addend: 0x0, symName: __ZNSt3__121__libcpp_operator_newB8ue170006IJmEEEPvDpT_, symObjAddr: 0x4DE8, symBinAddr: 0x100008410, symSize: 0x24 }
  - { offsetInCU: 0x8032, offset: 0xFDF6, size: 0x8, addend: 0x0, symName: __ZNSt3__112__to_addressB8ue170006I9CzytelnikEEPT_S3_, symObjAddr: 0x4F04, symBinAddr: 0x10000852C, symSize: 0x14 }
  - { offsetInCU: 0x8067, offset: 0xFE2B, size: 0x8, addend: 0x0, symName: __ZNSt3__130__uninitialized_allocator_copyB8ue170006INS_9allocatorI9CzytelnikEEPS2_S4_S4_EET2_RT_T0_T1_S5_, symObjAddr: 0x4FB4, symBinAddr: 0x1000085DC, symSize: 0x80 }
  - { offsetInCU: 0x8104, offset: 0xFEC8, size: 0x8, addend: 0x0, symName: __ZNSt3__114__unwrap_rangeB8ue170006IP9CzytelnikS2_EENS_4pairIT0_S4_EET_S6_, symObjAddr: 0x50AC, symBinAddr: 0x1000086D4, symSize: 0x60 }
  - { offsetInCU: 0x8150, offset: 0xFF14, size: 0x8, addend: 0x0, symName: __ZNSt3__135__uninitialized_allocator_copy_implB8ue170006INS_9allocatorI9CzytelnikEEPS2_S4_S4_EET2_RT_T0_T1_S5_, symObjAddr: 0x510C, symBinAddr: 0x100008734, symSize: 0xF4 }
  - { offsetInCU: 0x81EE, offset: 0xFFB2, size: 0x8, addend: 0x0, symName: __ZNSt3__113__unwrap_iterB8ue170006IP9CzytelnikNS_18__unwrap_iter_implIS2_Lb1EEELi0EEEDTclsrT0_8__unwrapclsr3stdE7declvalIT_EEEES6_, symObjAddr: 0x5200, symBinAddr: 0x100008828, symSize: 0x24 }
  - { offsetInCU: 0x8232, offset: 0xFFF6, size: 0x8, addend: 0x0, symName: __ZNSt3__113__rewrap_iterB8ue170006IP9CzytelnikS2_NS_18__unwrap_iter_implIS2_Lb1EEEEET_S5_T0_, symObjAddr: 0x5224, symBinAddr: 0x10000884C, symSize: 0x3C }
  - { offsetInCU: 0x8287, offset: 0x1004B, size: 0x8, addend: 0x0, symName: __ZNSt3__19make_pairB8ue170006IP9CzytelnikS2_EENS_4pairINS_18__unwrap_ref_decayIT_E4typeENS4_IT0_E4typeEEEOS5_OS8_, symObjAddr: 0x5260, symBinAddr: 0x100008888, symSize: 0x38 }
  - { offsetInCU: 0x83AB, offset: 0x1016F, size: 0x8, addend: 0x0, symName: __ZNSt3__122__make_exception_guardB8ue170006INS_29_AllocatorDestroyRangeReverseINS_9allocatorI9CzytelnikEEPS3_EEEENS_28__exception_guard_exceptionsIT_EES8_, symObjAddr: 0x5308, symBinAddr: 0x100008930, symSize: 0x4C }
  - { offsetInCU: 0x83E1, offset: 0x101A5, size: 0x8, addend: 0x0, symName: __ZNSt3__119__allocator_destroyB8ue170006INS_9allocatorI9CzytelnikEENS_16reverse_iteratorIPS2_EES6_EEvRT_T0_T1_, symObjAddr: 0x5598, symBinAddr: 0x100008BC0, symSize: 0x70 }
  - { offsetInCU: 0x8445, offset: 0x10209, size: 0x8, addend: 0x0, symName: __ZNSt3__1neB8ue170006IP9CzytelnikS2_EEbRKNS_16reverse_iteratorIT_EERKNS3_IT0_EE, symObjAddr: 0x563C, symBinAddr: 0x100008C64, symSize: 0x48 }
  - { offsetInCU: 0x8491, offset: 0x10255, size: 0x8, addend: 0x0, symName: __ZNSt3__112__to_addressB8ue170006INS_16reverse_iteratorIP9CzytelnikEEvEEu7__decayIDTclsr19__to_address_helperIT_EE6__callclsr3stdE7declvalIRKS5_EEEEES7_, symObjAddr: 0x56B0, symBinAddr: 0x100008CD8, symSize: 0x24 }
  - { offsetInCU: 0x8546, offset: 0x1030A, size: 0x8, addend: 0x0, symName: __ZNSt3__18distanceB8ue170006IPK9CzytelnikEENS_15iterator_traitsIT_E15difference_typeES5_S5_, symObjAddr: 0x5ED8, symBinAddr: 0x100009500, symSize: 0x2C }
  - { offsetInCU: 0x8589, offset: 0x1034D, size: 0x8, addend: 0x0, symName: __ZNSt3__14nextB8ue170006IPK9CzytelnikEENS_9enable_ifIXsr29__has_input_iterator_categoryIT_EE5valueES5_E4typeES5_NS_15iterator_traitsIS5_E15difference_typeE, symObjAddr: 0x5F04, symBinAddr: 0x10000952C, symSize: 0x34 }
  - { offsetInCU: 0x85CC, offset: 0x10390, size: 0x8, addend: 0x0, symName: __ZNSt3__14copyB8ue170006IPK9CzytelnikPS1_EET0_T_S6_S5_, symObjAddr: 0x5F38, symBinAddr: 0x100009560, symSize: 0x40 }
  - { offsetInCU: 0x8626, offset: 0x103EA, size: 0x8, addend: 0x0, symName: __ZNSt3__16__copyB8ue170006INS_17_ClassicAlgPolicyEPK9CzytelnikS4_PS2_EENS_4pairIT0_T2_EES7_T1_S8_, symObjAddr: 0x6004, symBinAddr: 0x10000962C, symSize: 0x44 }
  - { offsetInCU: 0x8692, offset: 0x10456, size: 0x8, addend: 0x0, symName: __ZNSt3__121__convert_to_integralB8ue170006El, symObjAddr: 0x6214, symBinAddr: 0x10000983C, symSize: 0x14 }
  - { offsetInCU: 0x86BE, offset: 0x10482, size: 0x8, addend: 0x0, symName: __ZNSt3__19__advanceB8ue170006IPK9CzytelnikEEvRT_NS_15iterator_traitsIS4_E15difference_typeENS_26random_access_iterator_tagE, symObjAddr: 0x6228, symBinAddr: 0x100009850, symSize: 0x30 }
  - { offsetInCU: 0x8708, offset: 0x104CC, size: 0x8, addend: 0x0, symName: __ZNSt3__130__uninitialized_allocator_copyB8ue170006INS_9allocatorI9CzytelnikEEPKS2_S5_PS2_EET2_RT_T0_T1_S7_, symObjAddr: 0x6258, symBinAddr: 0x100009880, symSize: 0x80 }
  - { offsetInCU: 0x87A5, offset: 0x10569, size: 0x8, addend: 0x0, symName: __ZNSt3__114__unwrap_rangeB8ue170006IPK9CzytelnikS3_EENS_4pairIT0_S5_EET_S7_, symObjAddr: 0x62D8, symBinAddr: 0x100009900, symSize: 0x60 }
  - { offsetInCU: 0x87F1, offset: 0x105B5, size: 0x8, addend: 0x0, symName: __ZNSt3__135__uninitialized_allocator_copy_implB8ue170006INS_9allocatorI9CzytelnikEEPKS2_S5_PS2_EET2_RT_T0_T1_S7_, symObjAddr: 0x6338, symBinAddr: 0x100009960, symSize: 0xF4 }
  - { offsetInCU: 0x888F, offset: 0x10653, size: 0x8, addend: 0x0, symName: __ZNSt3__19make_pairB8ue170006IPK9CzytelnikS3_EENS_4pairINS_18__unwrap_ref_decayIT_E4typeENS5_IT0_E4typeEEEOS6_OS9_, symObjAddr: 0x642C, symBinAddr: 0x100009A54, symSize: 0x38 }
  - { offsetInCU: 0x88DE, offset: 0x106A2, size: 0x8, addend: 0x0, symName: __ZNSt3__113__unwrap_iterB8ue170006IPK9CzytelnikNS_18__unwrap_iter_implIS3_Lb1EEELi0EEEDTclsrT0_8__unwrapclsr3stdE7declvalIT_EEEES7_, symObjAddr: 0x6464, symBinAddr: 0x100009A8C, symSize: 0x24 }
  - { offsetInCU: 0x8A4B, offset: 0x1080F, size: 0x8, addend: 0x0, symName: __ZNSt3__112__to_addressB8ue170006IK9CzytelnikEEPT_S4_, symObjAddr: 0x651C, symBinAddr: 0x100009B44, symSize: 0x14 }
  - { offsetInCU: 0x8A80, offset: 0x10844, size: 0x8, addend: 0x0, symName: __ZNSt3__123__dispatch_copy_or_moveB8ue170006INS_17_ClassicAlgPolicyENS_11__copy_loopIS1_EENS_14__copy_trivialEPK9CzytelnikS7_PS5_EENS_4pairIT2_T4_EESA_T3_SB_, symObjAddr: 0x6594, symBinAddr: 0x100009BBC, symSize: 0x44 }
  - { offsetInCU: 0x8AFE, offset: 0x108C2, size: 0x8, addend: 0x0, symName: __ZNSt3__121__unwrap_and_dispatchB8ue170006INS_10__overloadINS_11__copy_loopINS_17_ClassicAlgPolicyEEENS_14__copy_trivialEEEPK9CzytelnikS9_PS7_Li0EEENS_4pairIT0_T2_EESC_T1_SD_, symObjAddr: 0x65D8, symBinAddr: 0x100009C00, symSize: 0xB4 }
  - { offsetInCU: 0x8CFD, offset: 0x10AC1, size: 0x8, addend: 0x0, symName: __ZNSt3__19make_pairB8ue170006IPK9CzytelnikPS1_EENS_4pairINS_18__unwrap_ref_decayIT_E4typeENS6_IT0_E4typeEEEOS7_OSA_, symObjAddr: 0x6714, symBinAddr: 0x100009D3C, symSize: 0x38 }
  - { offsetInCU: 0x8D4C, offset: 0x10B10, size: 0x8, addend: 0x0, symName: __ZNSt3__114__rewrap_rangeB8ue170006IPK9CzytelnikS3_EET_S4_T0_, symObjAddr: 0x674C, symBinAddr: 0x100009D74, symSize: 0x2C }
  - { offsetInCU: 0x8D98, offset: 0x10B5C, size: 0x8, addend: 0x0, symName: __ZNSt3__113__rewrap_iterB8ue170006IPK9CzytelnikS3_NS_18__unwrap_iter_implIS3_Lb1EEEEET_S6_T0_, symObjAddr: 0x67E8, symBinAddr: 0x100009E10, symSize: 0x3C }
  - { offsetInCU: 0x8DED, offset: 0x10BB1, size: 0x8, addend: 0x0, symName: __ZNSt3__13maxB8ue170006ImEERKT_S3_S3_, symObjAddr: 0x6990, symBinAddr: 0x100009FB8, symSize: 0x2C }
  - { offsetInCU: 0x8E30, offset: 0x10BF4, size: 0x8, addend: 0x0, symName: __ZNSt3__13maxB8ue170006ImNS_6__lessIvvEEEERKT_S5_S5_T0_, symObjAddr: 0x69BC, symBinAddr: 0x100009FE4, symSize: 0x54 }
  - { offsetInCU: 0x8E8A, offset: 0x10C4E, size: 0x8, addend: 0x0, symName: __ZNSt3__110__distanceB8ue170006IPK9CzytelnikEENS_15iterator_traitsIT_E15difference_typeES5_S5_NS_26random_access_iterator_tagE, symObjAddr: 0x6A10, symBinAddr: 0x10000A038, symSize: 0x28 }
  - { offsetInCU: 0x8ED7, offset: 0x10C9B, size: 0x8, addend: 0x0, symName: __ZNSt3__18distanceB8ue170006IP9CzytelnikEENS_15iterator_traitsIT_E15difference_typeES4_S4_, symObjAddr: 0x6C38, symBinAddr: 0x10000A260, symSize: 0x2C }
  - { offsetInCU: 0x8F1A, offset: 0x10CDE, size: 0x8, addend: 0x0, symName: __ZNSt3__14nextB8ue170006IP9CzytelnikEENS_9enable_ifIXsr29__has_input_iterator_categoryIT_EE5valueES4_E4typeES4_NS_15iterator_traitsIS4_E15difference_typeE, symObjAddr: 0x6C64, symBinAddr: 0x10000A28C, symSize: 0x34 }
  - { offsetInCU: 0x8F5D, offset: 0x10D21, size: 0x8, addend: 0x0, symName: __ZNSt3__14copyB8ue170006IP9CzytelnikS2_EET0_T_S4_S3_, symObjAddr: 0x6C98, symBinAddr: 0x10000A2C0, symSize: 0x40 }
  - { offsetInCU: 0x8FB7, offset: 0x10D7B, size: 0x8, addend: 0x0, symName: __ZNSt3__16__copyB8ue170006INS_17_ClassicAlgPolicyEP9CzytelnikS3_S3_EENS_4pairIT0_T2_EES5_T1_S6_, symObjAddr: 0x6CD8, symBinAddr: 0x10000A300, symSize: 0x44 }
  - { offsetInCU: 0x9023, offset: 0x10DE7, size: 0x8, addend: 0x0, symName: __ZNSt3__19__advanceB8ue170006IP9CzytelnikEEvRT_NS_15iterator_traitsIS3_E15difference_typeENS_26random_access_iterator_tagE, symObjAddr: 0x6D54, symBinAddr: 0x10000A37C, symSize: 0x30 }
  - { offsetInCU: 0x906D, offset: 0x10E31, size: 0x8, addend: 0x0, symName: __ZNSt3__123__dispatch_copy_or_moveB8ue170006INS_17_ClassicAlgPolicyENS_11__copy_loopIS1_EENS_14__copy_trivialEP9CzytelnikS6_S6_EENS_4pairIT2_T4_EES8_T3_S9_, symObjAddr: 0x6D84, symBinAddr: 0x10000A3AC, symSize: 0x44 }
  - { offsetInCU: 0x90EB, offset: 0x10EAF, size: 0x8, addend: 0x0, symName: __ZNSt3__121__unwrap_and_dispatchB8ue170006INS_10__overloadINS_11__copy_loopINS_17_ClassicAlgPolicyEEENS_14__copy_trivialEEEP9CzytelnikS8_S8_Li0EEENS_4pairIT0_T2_EESA_T1_SB_, symObjAddr: 0x6DC8, symBinAddr: 0x10000A3F0, symSize: 0xB4 }
  - { offsetInCU: 0x917B, offset: 0x10F3F, size: 0x8, addend: 0x0, symName: __ZNSt3__114__rewrap_rangeB8ue170006IP9CzytelnikS2_EET_S3_T0_, symObjAddr: 0x6F04, symBinAddr: 0x10000A52C, symSize: 0x2C }
  - { offsetInCU: 0x91C7, offset: 0x10F8B, size: 0x8, addend: 0x0, symName: __ZNSt3__110__distanceB8ue170006IP9CzytelnikEENS_15iterator_traitsIT_E15difference_typeES4_S4_NS_26random_access_iterator_tagE, symObjAddr: 0x6F30, symBinAddr: 0x10000A558, symSize: 0x28 }
  - { offsetInCU: 0x9214, offset: 0x10FD8, size: 0x8, addend: 0x0, symName: __ZNSt3__142__uninitialized_allocator_move_if_noexceptB8ue170006INS_9allocatorI9CzytelnikEENS_16reverse_iteratorIPS2_EES6_S6_EET2_RT_T0_T1_S7_, symObjAddr: 0x7570, symBinAddr: 0x10000AB98, symSize: 0x11C }
  - { offsetInCU: 0x92B4, offset: 0x11078, size: 0x8, addend: 0x0, symName: __ZNSt3__14swapB8ue170006IP9CzytelnikEENS_9enable_ifIXaasr21is_move_constructibleIT_EE5valuesr18is_move_assignableIS4_EE5valueEvE4typeERS4_S7_, symObjAddr: 0x768C, symBinAddr: 0x10000ACB4, symSize: 0x3C }
  - { offsetInCU: 0x9306, offset: 0x110CA, size: 0x8, addend: 0x0, symName: __ZNSt3__122__make_exception_guardB8ue170006INS_29_AllocatorDestroyRangeReverseINS_9allocatorI9CzytelnikEENS_16reverse_iteratorIPS3_EEEEEENS_28__exception_guard_exceptionsIT_EESA_, symObjAddr: 0x76C8, symBinAddr: 0x10000ACF0, symSize: 0x4C }
  - { offsetInCU: 0x933C, offset: 0x11100, size: 0x8, addend: 0x0, symName: __ZNSt3__119__allocator_destroyB8ue170006INS_9allocatorI9CzytelnikEENS_16reverse_iteratorINS4_IPS2_EEEES7_EEvRT_T0_T1_, symObjAddr: 0x79A4, symBinAddr: 0x10000AFCC, symSize: 0x70 }
  - { offsetInCU: 0x93A2, offset: 0x11166, size: 0x8, addend: 0x0, symName: __ZNSt3__1neB8ue170006INS_16reverse_iteratorIP9CzytelnikEES4_EEbRKNS1_IT_EERKNS1_IT0_EE, symObjAddr: 0x7A50, symBinAddr: 0x10000B078, symSize: 0x60 }
  - { offsetInCU: 0x93EE, offset: 0x111B2, size: 0x8, addend: 0x0, symName: __ZNSt3__112__to_addressB8ue170006INS_16reverse_iteratorINS1_IP9CzytelnikEEEEvEEu7__decayIDTclsr19__to_address_helperIT_EE6__callclsr3stdE7declvalIRKS6_EEEEES8_, symObjAddr: 0x7AB0, symBinAddr: 0x10000B0D8, symSize: 0x24 }
  - { offsetInCU: 0x944F, offset: 0x11213, size: 0x8, addend: 0x0, symName: __ZNSt3__110__str_findB8ue170006IcmNS_11char_traitsIcEELm18446744073709551615EEET0_PKT_S3_S6_S3_S3_, symObjAddr: 0x7E74, symBinAddr: 0x10000B49C, symSize: 0xE4 }
  - { offsetInCU: 0x94F6, offset: 0x112BA, size: 0x8, addend: 0x0, symName: __ZNSt3__118__search_substringB8ue170006IcNS_11char_traitsIcEEEEPKT_S5_S5_S5_S5_, symObjAddr: 0x7F58, symBinAddr: 0x10000B580, symSize: 0x154 }
  - { offsetInCU: 0x9590, offset: 0x11354, size: 0x8, addend: 0x0, symName: __ZNSt3__118__constexpr_memchrB8ue170006IKccEEPT_S3_T0_m, symObjAddr: 0x811C, symBinAddr: 0x10000B744, symSize: 0x40 }
  - { offsetInCU: 0x9608, offset: 0x113CC, size: 0x8, addend: 0x0, symName: __ZNSt3__1miB8ue170006IPK9CzytelnikS3_EEDTmicldtfp_4baseEcldtfp0_4baseEERKNS_11__wrap_iterIT_EERKNS5_IT0_EE, symObjAddr: 0x81E4, symBinAddr: 0x10000B80C, symSize: 0x48 }
  - { offsetInCU: 0x9654, offset: 0x11418, size: 0x8, addend: 0x0, symName: __ZNSt3__14moveB8ue170006IP9CzytelnikS2_EET0_T_S4_S3_, symObjAddr: 0x8258, symBinAddr: 0x10000B880, symSize: 0x40 }
  - { offsetInCU: 0x96AE, offset: 0x11472, size: 0x8, addend: 0x0, symName: __ZNSt3__16__moveB8ue170006INS_17_ClassicAlgPolicyEP9CzytelnikS3_S3_EENS_4pairIT0_T2_EES5_T1_S6_, symObjAddr: 0x8364, symBinAddr: 0x10000B98C, symSize: 0x44 }
  - { offsetInCU: 0x971A, offset: 0x114DE, size: 0x8, addend: 0x0, symName: __ZNSt3__123__dispatch_copy_or_moveB8ue170006INS_17_ClassicAlgPolicyENS_11__move_loopIS1_EENS_14__move_trivialEP9CzytelnikS6_S6_EENS_4pairIT2_T4_EES8_T3_S9_, symObjAddr: 0x83A8, symBinAddr: 0x10000B9D0, symSize: 0x44 }
  - { offsetInCU: 0x9798, offset: 0x1155C, size: 0x8, addend: 0x0, symName: __ZNSt3__121__unwrap_and_dispatchB8ue170006INS_10__overloadINS_11__move_loopINS_17_ClassicAlgPolicyEEENS_14__move_trivialEEEP9CzytelnikS8_S8_Li0EEENS_4pairIT0_T2_EESA_T1_SB_, symObjAddr: 0x83EC, symBinAddr: 0x10000BA14, symSize: 0xB4 }
  - { offsetInCU: 0x9BE3, offset: 0x119A7, size: 0x8, addend: 0x0, symName: __ZSt28__throw_bad_array_new_lengthB8ue170006v, symObjAddr: 0x4D28, symBinAddr: 0x100008350, symSize: 0x34 }
  - { offsetInCU: 0xA5EC, offset: 0x123B0, size: 0x8, addend: 0x0, symName: __ZNSt3__16vectorI9CzytelnikNS_9allocatorIS1_EEE26__swap_out_circular_bufferERNS_14__split_bufferIS1_RS3_EE, symObjAddr: 0x71FC, symBinAddr: 0x10000A824, symSize: 0x110 }
  - { offsetInCU: 0xC46D, offset: 0x14231, size: 0x8, addend: 0x0, symName: __ZN10Biblioteka14get_bibliotekaEv, symObjAddr: 0x0, symBinAddr: 0x100004220, symSize: 0x80 }
  - { offsetInCU: 0xC483, offset: 0x14247, size: 0x8, addend: 0x0, symName: __ZN10BibliotekaC1Ev, symObjAddr: 0x80, symBinAddr: 0x1000042A0, symSize: 0x2C }
  - { offsetInCU: 0xC4AE, offset: 0x14272, size: 0x8, addend: 0x0, symName: __ZN10BibliotekaC2Ev, symObjAddr: 0xAC, symBinAddr: 0x1000042CC, symSize: 0x88 }
  - { offsetInCU: 0xC4D9, offset: 0x1429D, size: 0x8, addend: 0x0, symName: __ZNSt3__16vectorI9CzytelnikNS_9allocatorIS1_EEEC1B8ue170006Ev, symObjAddr: 0x134, symBinAddr: 0x100004354, symSize: 0x2C }
  - { offsetInCU: 0xC501, offset: 0x142C5, size: 0x8, addend: 0x0, symName: __ZNSt16initializer_listI9CzytelnikEC1B8ue170006Ev, symObjAddr: 0x160, symBinAddr: 0x100004380, symSize: 0x2C }
  - { offsetInCU: 0xC529, offset: 0x142ED, size: 0x8, addend: 0x0, symName: __ZNSt3__16vectorI9CzytelnikNS_9allocatorIS1_EEEaSB8ue170006ESt16initializer_listIS1_E, symObjAddr: 0x18C, symBinAddr: 0x1000043AC, symSize: 0x60 }
  - { offsetInCU: 0xC55C, offset: 0x14320, size: 0x8, addend: 0x0, symName: __ZNSt3__16vectorI9CzytelnikNS_9allocatorIS1_EEED1B8ue170006Ev, symObjAddr: 0x1EC, symBinAddr: 0x10000440C, symSize: 0x2C }
  - { offsetInCU: 0xC584, offset: 0x14348, size: 0x8, addend: 0x0, symName: __ZN10BibliotekaC2ERKS_, symObjAddr: 0x218, symBinAddr: 0x100004438, symSize: 0x16C }
  - { offsetInCU: 0xC5D2, offset: 0x14396, size: 0x8, addend: 0x0, symName: __ZNSt3__16vectorI9CzytelnikNS_9allocatorIS1_EEEaSB8ue170006ERKS4_, symObjAddr: 0x384, symBinAddr: 0x1000045A4, symSize: 0x68 }
  - { offsetInCU: 0xC607, offset: 0x143CB, size: 0x8, addend: 0x0, symName: __ZN10BibliotekaC1ERKS_, symObjAddr: 0x3EC, symBinAddr: 0x10000460C, symSize: 0x34 }
  - { offsetInCU: 0xC640, offset: 0x14404, size: 0x8, addend: 0x0, symName: __ZN10BibliotekaaSERKS_, symObjAddr: 0x420, symBinAddr: 0x100004640, symSize: 0x1E4 }
  - { offsetInCU: 0xC6A8, offset: 0x1446C, size: 0x8, addend: 0x0, symName: __ZN10BibliotekaC2EOS_, symObjAddr: 0x604, symBinAddr: 0x100004824, symSize: 0x6C }
  - { offsetInCU: 0xC6E1, offset: 0x144A5, size: 0x8, addend: 0x0, symName: __ZNSt3__16vectorI9CzytelnikNS_9allocatorIS1_EEEaSB8ue170006EOS4_, symObjAddr: 0x670, symBinAddr: 0x100004890, symSize: 0x34 }
  - { offsetInCU: 0xC716, offset: 0x144DA, size: 0x8, addend: 0x0, symName: __ZN10BibliotekaC1EOS_, symObjAddr: 0x6A4, symBinAddr: 0x1000048C4, symSize: 0x34 }
  - { offsetInCU: 0xC74F, offset: 0x14513, size: 0x8, addend: 0x0, symName: __ZN10BibliotekaaSEOS_, symObjAddr: 0x6D8, symBinAddr: 0x1000048F8, symSize: 0x128 }
  - { offsetInCU: 0xC7A2, offset: 0x14566, size: 0x8, addend: 0x0, symName: __ZN10BibliotekaD2Ev, symObjAddr: 0x800, symBinAddr: 0x100004A20, symSize: 0xD0 }
  - { offsetInCU: 0xC7EB, offset: 0x145AF, size: 0x8, addend: 0x0, symName: __ZN10BibliotekaD1Ev, symObjAddr: 0x8D0, symBinAddr: 0x100004AF0, symSize: 0x2C }
  - { offsetInCU: 0xC816, offset: 0x145DA, size: 0x8, addend: 0x0, symName: __ZN10Biblioteka5dodajEP7Ksiazka, symObjAddr: 0x8FC, symBinAddr: 0x100004B1C, symSize: 0xFC }
  - { offsetInCU: 0xC878, offset: 0x1463C, size: 0x8, addend: 0x0, symName: __ZN10Biblioteka5dodajE9Czytelnik, symObjAddr: 0x9F8, symBinAddr: 0x100004C18, symSize: 0x30 }
  - { offsetInCU: 0xC8AE, offset: 0x14672, size: 0x8, addend: 0x0, symName: __ZNSt3__16vectorI9CzytelnikNS_9allocatorIS1_EEE9push_backB8ue170006ERKS1_, symObjAddr: 0xA28, symBinAddr: 0x100004C48, symSize: 0x6C }
  - { offsetInCU: 0xC8E3, offset: 0x146A7, size: 0x8, addend: 0x0, symName: __ZN10Biblioteka19wyswietlCzytelnikowEv, symObjAddr: 0xA94, symBinAddr: 0x100004CB4, symSize: 0x158 }
  - { offsetInCU: 0xC96D, offset: 0x14731, size: 0x8, addend: 0x0, symName: __ZNSt3__16vectorI9CzytelnikNS_9allocatorIS1_EEE5beginB8ue170006Ev, symObjAddr: 0xC34, symBinAddr: 0x100004E0C, symSize: 0x30 }
  - { offsetInCU: 0xC993, offset: 0x14757, size: 0x8, addend: 0x0, symName: __ZNSt3__16vectorI9CzytelnikNS_9allocatorIS1_EEE3endB8ue170006Ev, symObjAddr: 0xC64, symBinAddr: 0x100004E3C, symSize: 0x30 }
  - { offsetInCU: 0xC9B9, offset: 0x1477D, size: 0x8, addend: 0x0, symName: __ZNKSt3__111__wrap_iterIP9CzytelnikEdeB8ue170006Ev, symObjAddr: 0xCC8, symBinAddr: 0x100004EA0, symSize: 0x18 }
  - { offsetInCU: 0xC9DD, offset: 0x147A1, size: 0x8, addend: 0x0, symName: __ZNSt3__111__wrap_iterIP9CzytelnikEppB8ue170006Ev, symObjAddr: 0xCE0, symBinAddr: 0x100004EB8, symSize: 0x20 }
  - { offsetInCU: 0xCA06, offset: 0x147CA, size: 0x8, addend: 0x0, symName: __ZN10Biblioteka15wyswietlKsiazkiEv, symObjAddr: 0xD34, symBinAddr: 0x100004ED8, symSize: 0x130 }
  - { offsetInCU: 0xCA4B, offset: 0x1480F, size: 0x8, addend: 0x0, symName: __ZN10Biblioteka16utworzCzytelnikaEv, symObjAddr: 0xE64, symBinAddr: 0x100005008, symSize: 0x4DC }
  - { offsetInCU: 0xCAFC, offset: 0x148C0, size: 0x8, addend: 0x0, symName: __ZNSt3__112basic_stringIcNS_11char_traitsIcEENS_9allocatorIcEEEC1B8ue170006Ev, symObjAddr: 0x1340, symBinAddr: 0x1000054E4, symSize: 0x2C }
  - { offsetInCU: 0xCB24, offset: 0x148E8, size: 0x8, addend: 0x0, symName: __ZNKSt3__112basic_stringIcNS_11char_traitsIcEENS_9allocatorIcEEE4findB8ue170006EPKcm, symObjAddr: 0x13C8, symBinAddr: 0x10000556C, symSize: 0x74 }
  - { offsetInCU: 0xCB68, offset: 0x1492C, size: 0x8, addend: 0x0, symName: __ZNSt3__113basic_ostreamIcNS_11char_traitsIcEEElsB8ue170006EPFRS3_S4_E, symObjAddr: 0x143C, symBinAddr: 0x1000055E0, symSize: 0x2C }
  - { offsetInCU: 0xCB9A, offset: 0x1495E, size: 0x8, addend: 0x0, symName: __ZNKSt3__112basic_stringIcNS_11char_traitsIcEENS_9allocatorIcEEE6substrB8ue170006Emm, symObjAddr: 0x14C0, symBinAddr: 0x100005664, symSize: 0x68 }
  - { offsetInCU: 0xCBDC, offset: 0x149A0, size: 0x8, addend: 0x0, symName: __ZNSt3__112basic_stringIcNS_11char_traitsIcEENS_9allocatorIcEEEaSB8ue170006EOS5_, symObjAddr: 0x1528, symBinAddr: 0x1000056CC, symSize: 0x34 }
  - { offsetInCU: 0xCC0F, offset: 0x149D3, size: 0x8, addend: 0x0, symName: __ZNKSt3__112basic_stringIcNS_11char_traitsIcEENS_9allocatorIcEEE4sizeB8ue170006Ev, symObjAddr: 0x155C, symBinAddr: 0x100005700, symSize: 0x54 }
  - { offsetInCU: 0xCC33, offset: 0x149F7, size: 0x8, addend: 0x0, symName: __ZN10Biblioteka13utworzKsiazkeEv, symObjAddr: 0x15B0, symBinAddr: 0x100005754, symSize: 0x114 }
  - { offsetInCU: 0xCC69, offset: 0x14A2D, size: 0x8, addend: 0x0, symName: __ZN10Biblioteka16edytujCzytelnikaEm, symObjAddr: 0x16C4, symBinAddr: 0x100005868, symSize: 0x118 }
  - { offsetInCU: 0xCC9E, offset: 0x14A62, size: 0x8, addend: 0x0, symName: __ZNSt3__16vectorI9CzytelnikNS_9allocatorIS1_EEEixB8ue170006Em, symObjAddr: 0x17DC, symBinAddr: 0x100005980, symSize: 0x2C }
  - { offsetInCU: 0xCCD3, offset: 0x14A97, size: 0x8, addend: 0x0, symName: __ZN10Biblioteka13edytujKsiazkeEm, symObjAddr: 0x1808, symBinAddr: 0x1000059AC, symSize: 0x130 }
  - { offsetInCU: 0xCD08, offset: 0x14ACC, size: 0x8, addend: 0x0, symName: __ZN10Biblioteka14usunCzytelnikaEm, symObjAddr: 0x1938, symBinAddr: 0x100005ADC, symSize: 0xC0 }
  - { offsetInCU: 0xCD3D, offset: 0x14B01, size: 0x8, addend: 0x0, symName: __ZNSt3__16vectorI9CzytelnikNS_9allocatorIS1_EEE5eraseB8ue170006ENS_11__wrap_iterIPKS1_EE, symObjAddr: 0x19F8, symBinAddr: 0x100005B9C, symSize: 0x9C }
  - { offsetInCU: 0xCD90, offset: 0x14B54, size: 0x8, addend: 0x0, symName: __ZNKSt3__111__wrap_iterIP9CzytelnikEplB8ue170006El, symObjAddr: 0x1A94, symBinAddr: 0x100005C38, symSize: 0x3C }
  - { offsetInCU: 0xCDDB, offset: 0x14B9F, size: 0x8, addend: 0x0, symName: __ZNSt3__111__wrap_iterIPK9CzytelnikEC1B8ue170006IPS1_EERKNS0_IT_EEPNS_9enable_ifIXsr14is_convertibleIS7_S3_EE5valueEvE4typeE, symObjAddr: 0x1AD0, symBinAddr: 0x100005C74, symSize: 0x3C }
  - { offsetInCU: 0xCE24, offset: 0x14BE8, size: 0x8, addend: 0x0, symName: __ZN10Biblioteka11usunKsiazkeEm, symObjAddr: 0x1B0C, symBinAddr: 0x100005CB0, symSize: 0x88 }
  - { offsetInCU: 0xCE59, offset: 0x14C1D, size: 0x8, addend: 0x0, symName: __ZN10Biblioteka4usunEP7Ksiazka, symObjAddr: 0x1B94, symBinAddr: 0x100005D38, symSize: 0x150 }
  - { offsetInCU: 0xCECA, offset: 0x14C8E, size: 0x8, addend: 0x0, symName: __ZN10Biblioteka16szukajCzytelnikaEv, symObjAddr: 0x1CE4, symBinAddr: 0x100005E88, symSize: 0x2E8 }
  - { offsetInCU: 0xCF53, offset: 0x14D17, size: 0x8, addend: 0x0, symName: __ZN10Biblioteka20szukajCzytelnikaPoIDEm, symObjAddr: 0x1FD4, symBinAddr: 0x100006170, symSize: 0x110 }
  - { offsetInCU: 0xCFC6, offset: 0x14D8A, size: 0x8, addend: 0x0, symName: __ZN10Biblioteka25szukajCzytelnikaPoImieniuENSt3__112basic_stringIcNS0_11char_traitsIcEENS0_9allocatorIcEEEE, symObjAddr: 0x20E4, symBinAddr: 0x100006280, symSize: 0xD0 }
  - { offsetInCU: 0xD01C, offset: 0x14DE0, size: 0x8, addend: 0x0, symName: __ZNKSt3__16vectorI9CzytelnikNS_9allocatorIS1_EEE4sizeB8ue170006Ev, symObjAddr: 0x21B4, symBinAddr: 0x100006350, symSize: 0x28 }
  - { offsetInCU: 0xD040, offset: 0x14E04, size: 0x8, addend: 0x0, symName: __ZN10Biblioteka21szukajKsiazkiPoTytuleENSt3__112basic_stringIcNS0_11char_traitsIcEENS0_9allocatorIcEEEE, symObjAddr: 0x2324, symBinAddr: 0x1000064C0, symSize: 0xC4 }
  - { offsetInCU: 0xD096, offset: 0x14E5A, size: 0x8, addend: 0x0, symName: __ZN10Biblioteka19szukajKsiazkiPoISBNEl, symObjAddr: 0x23E8, symBinAddr: 0x100006584, symSize: 0xA4 }
  - { offsetInCU: 0xD0EB, offset: 0x14EAF, size: 0x8, addend: 0x0, symName: __ZN10Biblioteka13szukajKsiazkiEv, symObjAddr: 0x248C, symBinAddr: 0x100006628, symSize: 0x2E8 }
  - { offsetInCU: 0xD174, offset: 0x14F38, size: 0x8, addend: 0x0, symName: __ZN10Biblioteka8wypozyczEv, symObjAddr: 0x2774, symBinAddr: 0x100006910, symSize: 0x130 }
  - { offsetInCU: 0xD1BA, offset: 0x14F7E, size: 0x8, addend: 0x0, symName: __ZN10Biblioteka17stworzCzytelnikowEm, symObjAddr: 0x2950, symBinAddr: 0x100006AEC, symSize: 0x108 }
  - { offsetInCU: 0xD21C, offset: 0x14FE0, size: 0x8, addend: 0x0, symName: __ZN10Biblioteka13stworzKsiazkiEm, symObjAddr: 0x2A58, symBinAddr: 0x100006BF4, symSize: 0xB0 }
  - { offsetInCU: 0xD27D, offset: 0x15041, size: 0x8, addend: 0x0, symName: __ZNK10Biblioteka11get_ksiazkiEv, symObjAddr: 0x2B08, symBinAddr: 0x100006CA4, symSize: 0x18 }
  - { offsetInCU: 0xD2A5, offset: 0x15069, size: 0x8, addend: 0x0, symName: __ZNK10Biblioteka18get_liczba_ksiazekEv, symObjAddr: 0x2B20, symBinAddr: 0x100006CBC, symSize: 0x18 }
  - { offsetInCU: 0xD2CD, offset: 0x15091, size: 0x8, addend: 0x0, symName: __ZNK10Biblioteka14get_czytelnicyEv, symObjAddr: 0x2B38, symBinAddr: 0x100006CD4, symSize: 0x3C }
  - { offsetInCU: 0xD2F5, offset: 0x150B9, size: 0x8, addend: 0x0, symName: __ZNSt3__16vectorI9CzytelnikNS_9allocatorIS1_EEEC1ERKS4_, symObjAddr: 0x2B74, symBinAddr: 0x100006D10, symSize: 0x34 }
  - { offsetInCU: 0xD32F, offset: 0x150F3, size: 0x8, addend: 0x0, symName: __ZNK10Biblioteka11get_last_idEv, symObjAddr: 0x2BA8, symBinAddr: 0x100006D44, symSize: 0x18 }
  - { offsetInCU: 0xD357, offset: 0x1511B, size: 0x8, addend: 0x0, symName: __ZN10Biblioteka11set_ksiazkiEPP7Ksiazka, symObjAddr: 0x2BC0, symBinAddr: 0x100006D5C, symSize: 0x20 }
  - { offsetInCU: 0xD38E, offset: 0x15152, size: 0x8, addend: 0x0, symName: __ZN10Biblioteka18set_liczba_ksiazekEm, symObjAddr: 0x2BE0, symBinAddr: 0x100006D7C, symSize: 0x20 }
  - { offsetInCU: 0xD3C5, offset: 0x15189, size: 0x8, addend: 0x0, symName: __ZN10Biblioteka14set_czytelnicyENSt3__16vectorI9CzytelnikNS0_9allocatorIS2_EEEE, symObjAddr: 0x2C00, symBinAddr: 0x100006D9C, symSize: 0x30 }
  - { offsetInCU: 0xD3FD, offset: 0x151C1, size: 0x8, addend: 0x0, symName: __ZN10Biblioteka11set_last_idEm, symObjAddr: 0x2C30, symBinAddr: 0x100006DCC, symSize: 0x20 }
  - { offsetInCU: 0xD434, offset: 0x151F8, size: 0x8, addend: 0x0, symName: __ZNSt16initializer_listI9CzytelnikEC2B8ue170006Ev, symObjAddr: 0x2C50, symBinAddr: 0x100006DEC, symSize: 0x1C }
  - { offsetInCU: 0xD45C, offset: 0x15220, size: 0x8, addend: 0x0, symName: __ZNKSt3__111__wrap_iterIP9CzytelnikE4baseB8ue170006Ev, symObjAddr: 0x2CB4, symBinAddr: 0x100006E50, symSize: 0x18 }
  - { offsetInCU: 0xD480, offset: 0x15244, size: 0x8, addend: 0x0, symName: __ZNSt3__111__wrap_iterIP9CzytelnikEpLB8ue170006El, symObjAddr: 0x2CCC, symBinAddr: 0x100006E68, symSize: 0x30 }
  - { offsetInCU: 0xD4B2, offset: 0x15276, size: 0x8, addend: 0x0, symName: __ZNSt3__111__wrap_iterIPK9CzytelnikEC2B8ue170006IPS1_EERKNS0_IT_EEPNS_9enable_ifIXsr14is_convertibleIS7_S3_EE5valueEvE4typeE, symObjAddr: 0x2CFC, symBinAddr: 0x100006E98, symSize: 0x40 }
  - { offsetInCU: 0xD500, offset: 0x152C4, size: 0x8, addend: 0x0, symName: __ZNSt3__112basic_stringIcNS_11char_traitsIcEENS_9allocatorIcEEEC2B8ue170006Ev, symObjAddr: 0x2EF0, symBinAddr: 0x100006ED8, symSize: 0x48 }
  - { offsetInCU: 0xD528, offset: 0x152EC, size: 0x8, addend: 0x0, symName: __ZNSt3__112basic_stringIcNS_11char_traitsIcEENS_9allocatorIcEEE14__default_initB8ue170006Ev, symObjAddr: 0x2F38, symBinAddr: 0x100006F20, symSize: 0x40 }
  - { offsetInCU: 0xD54C, offset: 0x15310, size: 0x8, addend: 0x0, symName: __ZNSt3__112basic_stringIcNS_11char_traitsIcEENS_9allocatorIcEEE13__move_assignB8ue170006ERS5_NS_17integral_constantIbLb1EEE, symObjAddr: 0x2FB0, symBinAddr: 0x100006F60, symSize: 0xC8 }
  - { offsetInCU: 0xD58D, offset: 0x15351, size: 0x8, addend: 0x0, symName: __ZNSt3__116allocator_traitsINS_9allocatorIcEEE10deallocateB8ue170006ERS2_Pcm, symObjAddr: 0x30B0, symBinAddr: 0x100007028, symSize: 0x34 }
  - { offsetInCU: 0xD5CE, offset: 0x15392, size: 0x8, addend: 0x0, symName: __ZNSt3__112basic_stringIcNS_11char_traitsIcEENS_9allocatorIcEEE7__allocB8ue170006Ev, symObjAddr: 0x30E4, symBinAddr: 0x10000705C, symSize: 0x24 }
  - { offsetInCU: 0xD5F2, offset: 0x153B6, size: 0x8, addend: 0x0, symName: __ZNKSt3__112basic_stringIcNS_11char_traitsIcEENS_9allocatorIcEEE14__get_long_capB8ue170006Ev, symObjAddr: 0x3130, symBinAddr: 0x100007080, symSize: 0x30 }
  - { offsetInCU: 0xD616, offset: 0x153DA, size: 0x8, addend: 0x0, symName: __ZNSt3__112basic_stringIcNS_11char_traitsIcEENS_9allocatorIcEEE19__move_assign_allocB8ue170006ERS5_, symObjAddr: 0x3160, symBinAddr: 0x1000070B0, symSize: 0x2C }
  - { offsetInCU: 0xD649, offset: 0x1540D, size: 0x8, addend: 0x0, symName: __ZNSt3__112basic_stringIcNS_11char_traitsIcEENS_9allocatorIcEEE16__set_short_sizeB8ue170006Em, symObjAddr: 0x318C, symBinAddr: 0x1000070DC, symSize: 0x78 }
  - { offsetInCU: 0xD67C, offset: 0x15440, size: 0x8, addend: 0x0, symName: __ZNSt3__111char_traitsIcE6assignB8ue170006ERcRKc, symObjAddr: 0x3204, symBinAddr: 0x100007154, symSize: 0x24 }
  - { offsetInCU: 0xD6AC, offset: 0x15470, size: 0x8, addend: 0x0, symName: __ZNSt3__19allocatorIcE10deallocateB8ue170006EPcm, symObjAddr: 0x3288, symBinAddr: 0x100007178, symSize: 0x40 }
  - { offsetInCU: 0xD6EC, offset: 0x154B0, size: 0x8, addend: 0x0, symName: __ZNSt3__117__compressed_pairINS_12basic_stringIcNS_11char_traitsIcEENS_9allocatorIcEEE5__repES5_E6secondB8ue170006Ev, symObjAddr: 0x33F0, symBinAddr: 0x1000072E0, symSize: 0x24 }
  - { offsetInCU: 0xD710, offset: 0x154D4, size: 0x8, addend: 0x0, symName: __ZNSt3__122__compressed_pair_elemINS_9allocatorIcEELi1ELb1EE5__getB8ue170006Ev, symObjAddr: 0x3414, symBinAddr: 0x100007304, symSize: 0x14 }
  - { offsetInCU: 0xD734, offset: 0x154F8, size: 0x8, addend: 0x0, symName: __ZNSt3__112basic_stringIcNS_11char_traitsIcEENS_9allocatorIcEEE19__move_assign_allocB8ue170006ERS5_NS_17integral_constantIbLb1EEE, symObjAddr: 0x3428, symBinAddr: 0x100007318, symSize: 0x38 }
  - { offsetInCU: 0xD7AF, offset: 0x15573, size: 0x8, addend: 0x0, symName: __ZNKSt3__113basic_istreamIcNS_11char_traitsIcEEE6sentrycvbB8ue170006Ev, symObjAddr: 0x3F60, symBinAddr: 0x100007588, symSize: 0x1C }
  - { offsetInCU: 0xD7D3, offset: 0x15597, size: 0x8, addend: 0x0, symName: __ZNSt3__112basic_stringIcNS_11char_traitsIcEENS_9allocatorIcEEE5clearB8ue170006Ev, symObjAddr: 0x3F7C, symBinAddr: 0x1000075A4, symSize: 0x78 }
  - { offsetInCU: 0xD7F9, offset: 0x155BD, size: 0x8, addend: 0x0, symName: __ZNSt3__115basic_streambufIcNS_11char_traitsIcEEE6sbumpcB8ue170006Ev, symObjAddr: 0x3FF4, symBinAddr: 0x10000761C, symSize: 0x78 }
  - { offsetInCU: 0xD81D, offset: 0x155E1, size: 0x8, addend: 0x0, symName: __ZNSt3__111char_traitsIcE12to_char_typeB8ue170006Ei, symObjAddr: 0x406C, symBinAddr: 0x100007694, symSize: 0x18 }
  - { offsetInCU: 0xD83F, offset: 0x15603, size: 0x8, addend: 0x0, symName: __ZNSt3__111char_traitsIcE2eqEcc, symObjAddr: 0x4084, symBinAddr: 0x1000076AC, symSize: 0x28 }
  - { offsetInCU: 0xD86F, offset: 0x15633, size: 0x8, addend: 0x0, symName: __ZNKSt3__112basic_stringIcNS_11char_traitsIcEENS_9allocatorIcEEE8max_sizeB8ue170006Ev, symObjAddr: 0x40AC, symBinAddr: 0x1000076D4, symSize: 0xAC }
  - { offsetInCU: 0xD8C0, offset: 0x15684, size: 0x8, addend: 0x0, symName: __ZNSt3__18ios_base18__setstate_nothrowB8ue170006Ej, symObjAddr: 0x4158, symBinAddr: 0x100007780, symSize: 0x64 }
  - { offsetInCU: 0xD8F3, offset: 0x156B7, size: 0x8, addend: 0x0, symName: __ZNKSt3__19basic_iosIcNS_11char_traitsIcEEE10exceptionsB8ue170006Ev, symObjAddr: 0x41BC, symBinAddr: 0x1000077E4, symSize: 0x24 }
  - { offsetInCU: 0xD917, offset: 0x156DB, size: 0x8, addend: 0x0, symName: __ZNSt3__112basic_stringIcNS_11char_traitsIcEENS_9allocatorIcEEE15__set_long_sizeB8ue170006Em, symObjAddr: 0x41E0, symBinAddr: 0x100007808, symSize: 0x38 }
  - { offsetInCU: 0xD94A, offset: 0x1570E, size: 0x8, addend: 0x0, symName: __ZNSt3__111char_traitsIcE11to_int_typeB8ue170006Ec, symObjAddr: 0x4218, symBinAddr: 0x100007840, symSize: 0x14 }
  - { offsetInCU: 0xD977, offset: 0x1573B, size: 0x8, addend: 0x0, symName: __ZNSt3__116allocator_traitsINS_9allocatorIcEEE8max_sizeB8ue170006IS2_vEEmRKS2_, symObjAddr: 0x422C, symBinAddr: 0x100007854, symSize: 0x24 }
  - { offsetInCU: 0xD9A5, offset: 0x15769, size: 0x8, addend: 0x0, symName: __ZNKSt3__112basic_stringIcNS_11char_traitsIcEENS_9allocatorIcEEE7__allocB8ue170006Ev, symObjAddr: 0x4250, symBinAddr: 0x100007878, symSize: 0x24 }
  - { offsetInCU: 0xD9C9, offset: 0x1578D, size: 0x8, addend: 0x0, symName: __ZNSt3__114numeric_limitsImE3maxB8ue170006Ev, symObjAddr: 0x4274, symBinAddr: 0x10000789C, symSize: 0x14 }
  - { offsetInCU: 0xD9DD, offset: 0x157A1, size: 0x8, addend: 0x0, symName: __ZNKSt3__19allocatorIcE8max_sizeB8ue170006Ev, symObjAddr: 0x4288, symBinAddr: 0x1000078B0, symSize: 0x14 }
  - { offsetInCU: 0xDA01, offset: 0x157C5, size: 0x8, addend: 0x0, symName: __ZNKSt3__117__compressed_pairINS_12basic_stringIcNS_11char_traitsIcEENS_9allocatorIcEEE5__repES5_E6secondB8ue170006Ev, symObjAddr: 0x429C, symBinAddr: 0x1000078C4, symSize: 0x24 }
  - { offsetInCU: 0xDA25, offset: 0x157E9, size: 0x8, addend: 0x0, symName: __ZNKSt3__122__compressed_pair_elemINS_9allocatorIcEELi1ELb1EE5__getB8ue170006Ev, symObjAddr: 0x42C0, symBinAddr: 0x1000078E8, symSize: 0x14 }
  - { offsetInCU: 0xDA49, offset: 0x1580D, size: 0x8, addend: 0x0, symName: __ZNSt3__123__libcpp_numeric_limitsImLb1EE3maxB8ue170006Ev, symObjAddr: 0x42D4, symBinAddr: 0x1000078FC, symSize: 0x8 }
  - { offsetInCU: 0xDA5C, offset: 0x15820, size: 0x8, addend: 0x0, symName: __ZNKSt3__18ios_base10exceptionsB8ue170006Ev, symObjAddr: 0x42DC, symBinAddr: 0x100007904, symSize: 0x18 }
  - { offsetInCU: 0xDA82, offset: 0x15846, size: 0x8, addend: 0x0, symName: __ZNKSt3__112basic_stringIcNS_11char_traitsIcEENS_9allocatorIcEEE4dataB8ue170006Ev, symObjAddr: 0x42F4, symBinAddr: 0x10000791C, symSize: 0x28 }
  - { offsetInCU: 0xDAA6, offset: 0x1586A, size: 0x8, addend: 0x0, symName: __ZNSt3__111char_traitsIcE7compareB8ue170006EPKcS3_m, symObjAddr: 0x431C, symBinAddr: 0x100007944, symSize: 0x34 }
  - { offsetInCU: 0xDAE4, offset: 0x158A8, size: 0x8, addend: 0x0, symName: __ZNKSt3__112basic_stringIcNS_11char_traitsIcEENS_9allocatorIcEEE13__get_pointerB8ue170006Ev, symObjAddr: 0x4364, symBinAddr: 0x10000798C, symSize: 0x54 }
  - { offsetInCU: 0xDB08, offset: 0x158CC, size: 0x8, addend: 0x0, symName: __ZNKSt3__112basic_stringIcNS_11char_traitsIcEENS_9allocatorIcEEE18__get_long_pointerB8ue170006Ev, symObjAddr: 0x43B8, symBinAddr: 0x1000079E0, symSize: 0x28 }
  - { offsetInCU: 0xDB2C, offset: 0x158F0, size: 0x8, addend: 0x0, symName: __ZNKSt3__112basic_stringIcNS_11char_traitsIcEENS_9allocatorIcEEE19__get_short_pointerB8ue170006Ev, symObjAddr: 0x43E0, symBinAddr: 0x100007A08, symSize: 0x28 }
  - { offsetInCU: 0xDB50, offset: 0x15914, size: 0x8, addend: 0x0, symName: __ZNSt3__114pointer_traitsIPKcE10pointer_toB8ue170006ERS1_, symObjAddr: 0x4408, symBinAddr: 0x100007A30, symSize: 0x14 }
  - { offsetInCU: 0xDB72, offset: 0x15936, size: 0x8, addend: 0x0, symName: __ZNSt3__16vectorI9CzytelnikNS_9allocatorIS1_EEEC2ERKS4_, symObjAddr: 0x441C, symBinAddr: 0x100007A44, symSize: 0x94 }
  - { offsetInCU: 0xDBB6, offset: 0x1597A, size: 0x8, addend: 0x0, symName: __ZNSt3__116allocator_traitsINS_9allocatorI9CzytelnikEEE37select_on_container_copy_constructionB8ue170006IS3_vvEES3_RKS3_, symObjAddr: 0x44B0, symBinAddr: 0x100007AD8, symSize: 0x10 }
  - { offsetInCU: 0xDBE6, offset: 0x159AA, size: 0x8, addend: 0x0, symName: __ZNKSt3__16vectorI9CzytelnikNS_9allocatorIS1_EEE7__allocB8ue170006Ev, symObjAddr: 0x44C0, symBinAddr: 0x100007AE8, symSize: 0x28 }
  - { offsetInCU: 0xDC14, offset: 0x159D8, size: 0x8, addend: 0x0, symName: __ZNSt3__117__compressed_pairIP9CzytelnikNS_9allocatorIS1_EEEC1B8ue170006IDnS4_EEOT_OT0_, symObjAddr: 0x44E8, symBinAddr: 0x100007B10, symSize: 0x3C }
  - { offsetInCU: 0xDC6A, offset: 0x15A2E, size: 0x8, addend: 0x0, symName: __ZNSt3__16vectorI9CzytelnikNS_9allocatorIS1_EEE16__init_with_sizeB8ue170006IPS1_S6_EEvT_T0_m, symObjAddr: 0x4524, symBinAddr: 0x100007B4C, symSize: 0xB8 }
  - { offsetInCU: 0xDCDC, offset: 0x15AA0, size: 0x8, addend: 0x0, symName: __ZNKSt3__117__compressed_pairIP9CzytelnikNS_9allocatorIS1_EEE6secondB8ue170006Ev, symObjAddr: 0x45DC, symBinAddr: 0x100007C04, symSize: 0x24 }
  - { offsetInCU: 0xDD00, offset: 0x15AC4, size: 0x8, addend: 0x0, symName: __ZNKSt3__122__compressed_pair_elemINS_9allocatorI9CzytelnikEELi1ELb1EE5__getB8ue170006Ev, symObjAddr: 0x4600, symBinAddr: 0x100007C28, symSize: 0x14 }
  - { offsetInCU: 0xDD24, offset: 0x15AE8, size: 0x8, addend: 0x0, symName: __ZNSt3__117__compressed_pairIP9CzytelnikNS_9allocatorIS1_EEEC2B8ue170006IDnS4_EEOT_OT0_, symObjAddr: 0x4614, symBinAddr: 0x100007C3C, symSize: 0x44 }
  - { offsetInCU: 0xDD7A, offset: 0x15B3E, size: 0x8, addend: 0x0, symName: __ZNSt3__122__compressed_pair_elemIP9CzytelnikLi0ELb0EEC2B8ue170006IDnvEEOT_, symObjAddr: 0x4658, symBinAddr: 0x100007C80, symSize: 0x1C }
  - { offsetInCU: 0xDDBB, offset: 0x15B7F, size: 0x8, addend: 0x0, symName: __ZNSt3__122__compressed_pair_elemINS_9allocatorI9CzytelnikEELi1ELb1EEC2B8ue170006IS3_vEEOT_, symObjAddr: 0x4674, symBinAddr: 0x100007C9C, symSize: 0x18 }
  - { offsetInCU: 0xDDFC, offset: 0x15BC0, size: 0x8, addend: 0x0, symName: __ZNSt3__16vectorI9CzytelnikNS_9allocatorIS1_EEE16__destroy_vectorC1B8ue170006ERS4_, symObjAddr: 0x46CC, symBinAddr: 0x100007CF4, symSize: 0x34 }
  - { offsetInCU: 0xDE33, offset: 0x15BF7, size: 0x8, addend: 0x0, symName: __ZNSt3__16vectorI9CzytelnikNS_9allocatorIS1_EEE11__vallocateB8ue170006Em, symObjAddr: 0x4700, symBinAddr: 0x100007D28, symSize: 0xB4 }
  - { offsetInCU: 0xDE75, offset: 0x15C39, size: 0x8, addend: 0x0, symName: __ZNSt3__16vectorI9CzytelnikNS_9allocatorIS1_EEE18__construct_at_endIPS1_S6_EEvT_T0_m, symObjAddr: 0x47B4, symBinAddr: 0x100007DDC, symSize: 0x8C }
  - { offsetInCU: 0xDEE9, offset: 0x15CAD, size: 0x8, addend: 0x0, symName: __ZNSt3__128__exception_guard_exceptionsINS_6vectorI9CzytelnikNS_9allocatorIS2_EEE16__destroy_vectorEE10__completeB8ue170006Ev, symObjAddr: 0x4840, symBinAddr: 0x100007E68, symSize: 0x1C }
  - { offsetInCU: 0xDF0D, offset: 0x15CD1, size: 0x8, addend: 0x0, symName: __ZNSt3__128__exception_guard_exceptionsINS_6vectorI9CzytelnikNS_9allocatorIS2_EEE16__destroy_vectorEED1B8ue170006Ev, symObjAddr: 0x485C, symBinAddr: 0x100007E84, symSize: 0x2C }
  - { offsetInCU: 0xDF35, offset: 0x15CF9, size: 0x8, addend: 0x0, symName: __ZNSt3__128__exception_guard_exceptionsINS_6vectorI9CzytelnikNS_9allocatorIS2_EEE16__destroy_vectorEEC1B8ue170006ES6_, symObjAddr: 0x4888, symBinAddr: 0x100007EB0, symSize: 0x34 }
  - { offsetInCU: 0xDF6B, offset: 0x15D2F, size: 0x8, addend: 0x0, symName: __ZNSt3__128__exception_guard_exceptionsINS_6vectorI9CzytelnikNS_9allocatorIS2_EEE16__destroy_vectorEEC2B8ue170006ES6_, symObjAddr: 0x48BC, symBinAddr: 0x100007EE4, symSize: 0x24 }
  - { offsetInCU: 0xDFA1, offset: 0x15D65, size: 0x8, addend: 0x0, symName: __ZNSt3__16vectorI9CzytelnikNS_9allocatorIS1_EEE16__destroy_vectorC2B8ue170006ERS4_, symObjAddr: 0x48E0, symBinAddr: 0x100007F08, symSize: 0x20 }
  - { offsetInCU: 0xDFD8, offset: 0x15D9C, size: 0x8, addend: 0x0, symName: __ZNKSt3__16vectorI9CzytelnikNS_9allocatorIS1_EEE8max_sizeEv, symObjAddr: 0x4900, symBinAddr: 0x100007F28, symSize: 0x60 }
  - { offsetInCU: 0xDFFE, offset: 0x15DC2, size: 0x8, addend: 0x0, symName: __ZNKSt3__16vectorI9CzytelnikNS_9allocatorIS1_EEE20__throw_length_errorB8ue170006Ev, symObjAddr: 0x4960, symBinAddr: 0x100007F88, symSize: 0x1C }
  - { offsetInCU: 0xE022, offset: 0x15DE6, size: 0x8, addend: 0x0, symName: __ZNSt3__16vectorI9CzytelnikNS_9allocatorIS1_EEE7__allocB8ue170006Ev, symObjAddr: 0x49BC, symBinAddr: 0x100007FE4, symSize: 0x28 }
  - { offsetInCU: 0xE046, offset: 0x15E0A, size: 0x8, addend: 0x0, symName: __ZNSt3__16vectorI9CzytelnikNS_9allocatorIS1_EEE9__end_capB8ue170006Ev, symObjAddr: 0x49E4, symBinAddr: 0x10000800C, symSize: 0x28 }
  - { offsetInCU: 0xE06A, offset: 0x15E2E, size: 0x8, addend: 0x0, symName: __ZNKSt3__16vectorI9CzytelnikNS_9allocatorIS1_EEE14__annotate_newB8ue170006Em, symObjAddr: 0x4A0C, symBinAddr: 0x100008034, symSize: 0xC8 }
  - { offsetInCU: 0xE09D, offset: 0x15E61, size: 0x8, addend: 0x0, symName: __ZNSt3__116allocator_traitsINS_9allocatorI9CzytelnikEEE8max_sizeB8ue170006IS3_vEEmRKS3_, symObjAddr: 0x4B00, symBinAddr: 0x100008128, symSize: 0x24 }
  - { offsetInCU: 0xE0CB, offset: 0x15E8F, size: 0x8, addend: 0x0, symName: __ZNSt3__114numeric_limitsIlE3maxB8ue170006Ev, symObjAddr: 0x4B24, symBinAddr: 0x10000814C, symSize: 0x14 }
  - { offsetInCU: 0xE0F3, offset: 0x15EB7, size: 0x8, addend: 0x0, symName: __ZNKSt3__16__lessIvvEclB8ue170006ImmEEbRKT_RKT0_, symObjAddr: 0x4B8C, symBinAddr: 0x1000081B4, symSize: 0x34 }
  - { offsetInCU: 0xE145, offset: 0x15F09, size: 0x8, addend: 0x0, symName: __ZNKSt3__19allocatorI9CzytelnikE8max_sizeB8ue170006Ev, symObjAddr: 0x4BC0, symBinAddr: 0x1000081E8, symSize: 0x20 }
  - { offsetInCU: 0xE169, offset: 0x15F2D, size: 0x8, addend: 0x0, symName: __ZNSt3__123__libcpp_numeric_limitsIlLb1EE3maxB8ue170006Ev, symObjAddr: 0x4BE0, symBinAddr: 0x100008208, symSize: 0x8 }
  - { offsetInCU: 0xE17C, offset: 0x15F40, size: 0x8, addend: 0x0, symName: __ZNSt12length_errorC1B8ue170006EPKc, symObjAddr: 0x4C4C, symBinAddr: 0x100008274, symSize: 0x34 }
  - { offsetInCU: 0xE1B2, offset: 0x15F76, size: 0x8, addend: 0x0, symName: __ZNSt12length_errorC2B8ue170006EPKc, symObjAddr: 0x4C80, symBinAddr: 0x1000082A8, symSize: 0x4C }
  - { offsetInCU: 0xE1E8, offset: 0x15FAC, size: 0x8, addend: 0x0, symName: __ZNSt3__19allocatorI9CzytelnikE8allocateB8ue170006Em, symObjAddr: 0x4CCC, symBinAddr: 0x1000082F4, symSize: 0x5C }
  - { offsetInCU: 0xE21A, offset: 0x15FDE, size: 0x8, addend: 0x0, symName: __ZNSt3__117__compressed_pairIP9CzytelnikNS_9allocatorIS1_EEE6secondB8ue170006Ev, symObjAddr: 0x4E0C, symBinAddr: 0x100008434, symSize: 0x24 }
  - { offsetInCU: 0xE23E, offset: 0x16002, size: 0x8, addend: 0x0, symName: __ZNSt3__122__compressed_pair_elemINS_9allocatorI9CzytelnikEELi1ELb1EE5__getB8ue170006Ev, symObjAddr: 0x4E30, symBinAddr: 0x100008458, symSize: 0x14 }
  - { offsetInCU: 0xE262, offset: 0x16026, size: 0x8, addend: 0x0, symName: __ZNSt3__117__compressed_pairIP9CzytelnikNS_9allocatorIS1_EEE5firstB8ue170006Ev, symObjAddr: 0x4E44, symBinAddr: 0x10000846C, symSize: 0x24 }
  - { offsetInCU: 0xE286, offset: 0x1604A, size: 0x8, addend: 0x0, symName: __ZNSt3__122__compressed_pair_elemIP9CzytelnikLi0ELb0EE5__getB8ue170006Ev, symObjAddr: 0x4E68, symBinAddr: 0x100008490, symSize: 0x14 }
  - { offsetInCU: 0xE2AA, offset: 0x1606E, size: 0x8, addend: 0x0, symName: __ZNKSt3__16vectorI9CzytelnikNS_9allocatorIS1_EEE31__annotate_contiguous_containerB8ue170006EPKvS6_S6_S6_, symObjAddr: 0x4E7C, symBinAddr: 0x1000084A4, symSize: 0x20 }
  - { offsetInCU: 0xE2FE, offset: 0x160C2, size: 0x8, addend: 0x0, symName: __ZNKSt3__16vectorI9CzytelnikNS_9allocatorIS1_EEE4dataB8ue170006Ev, symObjAddr: 0x4E9C, symBinAddr: 0x1000084C4, symSize: 0x28 }
  - { offsetInCU: 0xE322, offset: 0x160E6, size: 0x8, addend: 0x0, symName: __ZNKSt3__16vectorI9CzytelnikNS_9allocatorIS1_EEE8capacityB8ue170006Ev, symObjAddr: 0x4EC4, symBinAddr: 0x1000084EC, symSize: 0x40 }
  - { offsetInCU: 0xE346, offset: 0x1610A, size: 0x8, addend: 0x0, symName: __ZNKSt3__16vectorI9CzytelnikNS_9allocatorIS1_EEE9__end_capB8ue170006Ev, symObjAddr: 0x4F18, symBinAddr: 0x100008540, symSize: 0x28 }
  - { offsetInCU: 0xE36A, offset: 0x1612E, size: 0x8, addend: 0x0, symName: __ZNKSt3__117__compressed_pairIP9CzytelnikNS_9allocatorIS1_EEE5firstB8ue170006Ev, symObjAddr: 0x4F40, symBinAddr: 0x100008568, symSize: 0x24 }
  - { offsetInCU: 0xE38E, offset: 0x16152, size: 0x8, addend: 0x0, symName: __ZNKSt3__122__compressed_pair_elemIP9CzytelnikLi0ELb0EE5__getB8ue170006Ev, symObjAddr: 0x4F64, symBinAddr: 0x10000858C, symSize: 0x14 }
  - { offsetInCU: 0xE3CB, offset: 0x1618F, size: 0x8, addend: 0x0, symName: __ZNSt3__16vectorI9CzytelnikNS_9allocatorIS1_EEE21_ConstructTransactionC1B8ue170006ERS4_m, symObjAddr: 0x4F78, symBinAddr: 0x1000085A0, symSize: 0x3C }
  - { offsetInCU: 0xE411, offset: 0x161D5, size: 0x8, addend: 0x0, symName: __ZNSt3__16vectorI9CzytelnikNS_9allocatorIS1_EEE21_ConstructTransactionD1B8ue170006Ev, symObjAddr: 0x5034, symBinAddr: 0x10000865C, symSize: 0x2C }
  - { offsetInCU: 0xE439, offset: 0x161FD, size: 0x8, addend: 0x0, symName: __ZNSt3__16vectorI9CzytelnikNS_9allocatorIS1_EEE21_ConstructTransactionC2B8ue170006ERS4_m, symObjAddr: 0x5060, symBinAddr: 0x100008688, symSize: 0x4C }
  - { offsetInCU: 0xE49D, offset: 0x16261, size: 0x8, addend: 0x0, symName: __ZNSt3__14pairIP9CzytelnikS2_EC1B8ue170006IS2_S2_LPv0EEEOT_OT0_, symObjAddr: 0x5298, symBinAddr: 0x1000088C0, symSize: 0x3C }
  - { offsetInCU: 0xE4FA, offset: 0x162BE, size: 0x8, addend: 0x0, symName: __ZNSt3__14pairIP9CzytelnikS2_EC2B8ue170006IS2_S2_LPv0EEEOT_OT0_, symObjAddr: 0x52D4, symBinAddr: 0x1000088FC, symSize: 0x34 }
  - { offsetInCU: 0xE557, offset: 0x1631B, size: 0x8, addend: 0x0, symName: __ZNSt3__129_AllocatorDestroyRangeReverseINS_9allocatorI9CzytelnikEEPS2_EC1B8ue170006ERS3_RS4_S7_, symObjAddr: 0x5354, symBinAddr: 0x10000897C, symSize: 0x44 }
  - { offsetInCU: 0xE5AC, offset: 0x16370, size: 0x8, addend: 0x0, symName: __ZNSt3__116allocator_traitsINS_9allocatorI9CzytelnikEEE9constructB8ue170006IS2_JRS2_EvEEvRS3_PT_DpOT0_, symObjAddr: 0x5398, symBinAddr: 0x1000089C0, symSize: 0x34 }
  - { offsetInCU: 0xE605, offset: 0x163C9, size: 0x8, addend: 0x0, symName: __ZNSt3__128__exception_guard_exceptionsINS_29_AllocatorDestroyRangeReverseINS_9allocatorI9CzytelnikEEPS3_EEE10__completeB8ue170006Ev, symObjAddr: 0x53CC, symBinAddr: 0x1000089F4, symSize: 0x1C }
  - { offsetInCU: 0xE629, offset: 0x163ED, size: 0x8, addend: 0x0, symName: __ZNSt3__128__exception_guard_exceptionsINS_29_AllocatorDestroyRangeReverseINS_9allocatorI9CzytelnikEEPS3_EEED1B8ue170006Ev, symObjAddr: 0x53E8, symBinAddr: 0x100008A10, symSize: 0x2C }
  - { offsetInCU: 0xE651, offset: 0x16415, size: 0x8, addend: 0x0, symName: __ZNSt3__128__exception_guard_exceptionsINS_29_AllocatorDestroyRangeReverseINS_9allocatorI9CzytelnikEEPS3_EEEC1B8ue170006ES6_, symObjAddr: 0x5414, symBinAddr: 0x100008A3C, symSize: 0x34 }
  - { offsetInCU: 0xE688, offset: 0x1644C, size: 0x8, addend: 0x0, symName: __ZNSt3__128__exception_guard_exceptionsINS_29_AllocatorDestroyRangeReverseINS_9allocatorI9CzytelnikEEPS3_EEEC2B8ue170006ES6_, symObjAddr: 0x5448, symBinAddr: 0x100008A70, symSize: 0x30 }
  - { offsetInCU: 0xE6BF, offset: 0x16483, size: 0x8, addend: 0x0, symName: __ZNSt3__129_AllocatorDestroyRangeReverseINS_9allocatorI9CzytelnikEEPS2_EC2B8ue170006ERS3_RS4_S7_, symObjAddr: 0x5478, symBinAddr: 0x100008AA0, symSize: 0x38 }
  - { offsetInCU: 0xE714, offset: 0x164D8, size: 0x8, addend: 0x0, symName: __ZNSt3__19allocatorI9CzytelnikE9constructB8ue170006IS1_JRS1_EEEvPT_DpOT0_, symObjAddr: 0x54B0, symBinAddr: 0x100008AD8, symSize: 0x30 }
  - { offsetInCU: 0xE76A, offset: 0x1652E, size: 0x8, addend: 0x0, symName: __ZNSt3__128__exception_guard_exceptionsINS_29_AllocatorDestroyRangeReverseINS_9allocatorI9CzytelnikEEPS3_EEED2B8ue170006Ev, symObjAddr: 0x54E0, symBinAddr: 0x100008B08, symSize: 0x50 }
  - { offsetInCU: 0xE792, offset: 0x16556, size: 0x8, addend: 0x0, symName: __ZNKSt3__129_AllocatorDestroyRangeReverseINS_9allocatorI9CzytelnikEEPS2_EclB8ue170006Ev, symObjAddr: 0x5530, symBinAddr: 0x100008B58, symSize: 0x68 }
  - { offsetInCU: 0xE7B6, offset: 0x1657A, size: 0x8, addend: 0x0, symName: __ZNSt3__116reverse_iteratorIP9CzytelnikEC1B8ue170006ES2_, symObjAddr: 0x5608, symBinAddr: 0x100008C30, symSize: 0x34 }
  - { offsetInCU: 0xE7EC, offset: 0x165B0, size: 0x8, addend: 0x0, symName: __ZNSt3__116allocator_traitsINS_9allocatorI9CzytelnikEEE7destroyB8ue170006IS2_vEEvRS3_PT_, symObjAddr: 0x5684, symBinAddr: 0x100008CAC, symSize: 0x2C }
  - { offsetInCU: 0xE829, offset: 0x165ED, size: 0x8, addend: 0x0, symName: __ZNSt3__116reverse_iteratorIP9CzytelnikEppB8ue170006Ev, symObjAddr: 0x56D4, symBinAddr: 0x100008CFC, symSize: 0x20 }
  - { offsetInCU: 0xE84D, offset: 0x16611, size: 0x8, addend: 0x0, symName: __ZNKSt3__116reverse_iteratorIP9CzytelnikE4baseB8ue170006Ev, symObjAddr: 0x56F4, symBinAddr: 0x100008D1C, symSize: 0x18 }
  - { offsetInCU: 0xE871, offset: 0x16635, size: 0x8, addend: 0x0, symName: __ZNSt3__19allocatorI9CzytelnikE7destroyB8ue170006EPS1_, symObjAddr: 0x570C, symBinAddr: 0x100008D34, symSize: 0x30 }
  - { offsetInCU: 0xE8A8, offset: 0x1666C, size: 0x8, addend: 0x0, symName: __ZNSt3__119__to_address_helperINS_16reverse_iteratorIP9CzytelnikEEvE6__callB8ue170006ERKS4_, symObjAddr: 0x573C, symBinAddr: 0x100008D64, symSize: 0x38 }
  - { offsetInCU: 0xE8CA, offset: 0x1668E, size: 0x8, addend: 0x0, symName: __ZNKSt3__116reverse_iteratorIP9CzytelnikEptB8ue170006Ev, symObjAddr: 0x5774, symBinAddr: 0x100008D9C, symSize: 0x24 }
  - { offsetInCU: 0xE8EE, offset: 0x166B2, size: 0x8, addend: 0x0, symName: __ZNKSt3__116reverse_iteratorIP9CzytelnikEdeB8ue170006Ev, symObjAddr: 0x5798, symBinAddr: 0x100008DC0, symSize: 0x28 }
  - { offsetInCU: 0xE921, offset: 0x166E5, size: 0x8, addend: 0x0, symName: __ZNSt3__116reverse_iteratorIP9CzytelnikEC2B8ue170006ES2_, symObjAddr: 0x57C0, symBinAddr: 0x100008DE8, symSize: 0x28 }
  - { offsetInCU: 0xE957, offset: 0x1671B, size: 0x8, addend: 0x0, symName: __ZNSt3__118__unwrap_iter_implIP9CzytelnikLb1EE8__unwrapB8ue170006ES2_, symObjAddr: 0x57E8, symBinAddr: 0x100008E10, symSize: 0x24 }
  - { offsetInCU: 0xE979, offset: 0x1673D, size: 0x8, addend: 0x0, symName: __ZNSt3__118__unwrap_iter_implIP9CzytelnikLb1EE8__rewrapB8ue170006ES2_S2_, symObjAddr: 0x580C, symBinAddr: 0x100008E34, symSize: 0x58 }
  - { offsetInCU: 0xE9A9, offset: 0x1676D, size: 0x8, addend: 0x0, symName: __ZNSt3__16vectorI9CzytelnikNS_9allocatorIS1_EEE21_ConstructTransactionD2B8ue170006Ev, symObjAddr: 0x5864, symBinAddr: 0x100008E8C, symSize: 0x20 }
  - { offsetInCU: 0xE9D1, offset: 0x16795, size: 0x8, addend: 0x0, symName: __ZNSt3__128__exception_guard_exceptionsINS_6vectorI9CzytelnikNS_9allocatorIS2_EEE16__destroy_vectorEED2B8ue170006Ev, symObjAddr: 0x5884, symBinAddr: 0x100008EAC, symSize: 0x50 }
  - { offsetInCU: 0xE9F9, offset: 0x167BD, size: 0x8, addend: 0x0, symName: __ZNSt3__16vectorI9CzytelnikNS_9allocatorIS1_EEE16__destroy_vectorclB8ue170006Ev, symObjAddr: 0x58D4, symBinAddr: 0x100008EFC, symSize: 0x90 }
  - { offsetInCU: 0xEA1D, offset: 0x167E1, size: 0x8, addend: 0x0, symName: __ZNSt3__16vectorI9CzytelnikNS_9allocatorIS1_EEE7__clearB8ue170006Ev, symObjAddr: 0x5964, symBinAddr: 0x100008F8C, symSize: 0x28 }
  - { offsetInCU: 0xEA41, offset: 0x16805, size: 0x8, addend: 0x0, symName: __ZNKSt3__16vectorI9CzytelnikNS_9allocatorIS1_EEE17__annotate_deleteB8ue170006Ev, symObjAddr: 0x598C, symBinAddr: 0x100008FB4, symSize: 0xD4 }
  - { offsetInCU: 0xEA65, offset: 0x16829, size: 0x8, addend: 0x0, symName: __ZNSt3__116allocator_traitsINS_9allocatorI9CzytelnikEEE10deallocateB8ue170006ERS3_PS2_m, symObjAddr: 0x5A60, symBinAddr: 0x100009088, symSize: 0x34 }
  - { offsetInCU: 0xEAA6, offset: 0x1686A, size: 0x8, addend: 0x0, symName: __ZNSt3__16vectorI9CzytelnikNS_9allocatorIS1_EEE22__base_destruct_at_endB8ue170006EPS1_, symObjAddr: 0x5A94, symBinAddr: 0x1000090BC, symSize: 0x8C }
  - { offsetInCU: 0xEAE8, offset: 0x168AC, size: 0x8, addend: 0x0, symName: __ZNSt3__19allocatorI9CzytelnikE10deallocateB8ue170006EPS1_m, symObjAddr: 0x5B20, symBinAddr: 0x100009148, symSize: 0x44 }
  - { offsetInCU: 0xEB28, offset: 0x168EC, size: 0x8, addend: 0x0, symName: __ZNSt3__16vectorI9CzytelnikNS_9allocatorIS1_EEED2B8ue170006Ev, symObjAddr: 0x5B64, symBinAddr: 0x10000918C, symSize: 0x40 }
  - { offsetInCU: 0xEB50, offset: 0x16914, size: 0x8, addend: 0x0, symName: __ZNSt3__16vectorI9CzytelnikNS_9allocatorIS1_EEEC2B8ue170006Ev, symObjAddr: 0x5BA4, symBinAddr: 0x1000091CC, symSize: 0x4C }
  - { offsetInCU: 0xEB78, offset: 0x1693C, size: 0x8, addend: 0x0, symName: __ZNSt3__117__compressed_pairIP9CzytelnikNS_9allocatorIS1_EEEC1B8ue170006IDnNS_18__default_init_tagEEEOT_OT0_, symObjAddr: 0x5BF0, symBinAddr: 0x100009218, symSize: 0x3C }
  - { offsetInCU: 0xEBCE, offset: 0x16992, size: 0x8, addend: 0x0, symName: __ZNSt3__117__compressed_pairIP9CzytelnikNS_9allocatorIS1_EEEC2B8ue170006IDnNS_18__default_init_tagEEEOT_OT0_, symObjAddr: 0x5C2C, symBinAddr: 0x100009254, symSize: 0x40 }
  - { offsetInCU: 0xEC24, offset: 0x169E8, size: 0x8, addend: 0x0, symName: __ZNSt3__122__compressed_pair_elemINS_9allocatorI9CzytelnikEELi1ELb1EEC2B8ue170006ENS_18__default_init_tagE, symObjAddr: 0x5C6C, symBinAddr: 0x100009294, symSize: 0x2C }
  - { offsetInCU: 0xEC56, offset: 0x16A1A, size: 0x8, addend: 0x0, symName: __ZNSt3__19allocatorI9CzytelnikEC2B8ue170006Ev, symObjAddr: 0x5C98, symBinAddr: 0x1000092C0, symSize: 0x2C }
  - { offsetInCU: 0xEC7E, offset: 0x16A42, size: 0x8, addend: 0x0, symName: __ZNSt3__116__non_trivial_ifILb1ENS_9allocatorI9CzytelnikEEEC2B8ue170006Ev, symObjAddr: 0x5CC4, symBinAddr: 0x1000092EC, symSize: 0x14 }
  - { offsetInCU: 0xECA6, offset: 0x16A6A, size: 0x8, addend: 0x0, symName: __ZNSt3__16vectorI9CzytelnikNS_9allocatorIS1_EEE6assignIPKS1_Li0EEEvT_S8_, symObjAddr: 0x5CD8, symBinAddr: 0x100009300, symSize: 0x5C }
  - { offsetInCU: 0xECF9, offset: 0x16ABD, size: 0x8, addend: 0x0, symName: __ZNKSt16initializer_listI9CzytelnikE5beginB8ue170006Ev, symObjAddr: 0x5D34, symBinAddr: 0x10000935C, symSize: 0x18 }
  - { offsetInCU: 0xED1D, offset: 0x16AE1, size: 0x8, addend: 0x0, symName: __ZNKSt16initializer_listI9CzytelnikE3endB8ue170006Ev, symObjAddr: 0x5D4C, symBinAddr: 0x100009374, symSize: 0x28 }
  - { offsetInCU: 0xED41, offset: 0x16B05, size: 0x8, addend: 0x0, symName: __ZNSt3__16vectorI9CzytelnikNS_9allocatorIS1_EEE18__assign_with_sizeB8ue170006IPKS1_S7_EEvT_T0_l, symObjAddr: 0x5D74, symBinAddr: 0x10000939C, symSize: 0x164 }
  - { offsetInCU: 0xEDF1, offset: 0x16BB5, size: 0x8, addend: 0x0, symName: __ZNSt3__16vectorI9CzytelnikNS_9allocatorIS1_EEE18__construct_at_endIPKS1_S7_EEvT_T0_m, symObjAddr: 0x5F78, symBinAddr: 0x1000095A0, symSize: 0x8C }
  - { offsetInCU: 0xEE65, offset: 0x16C29, size: 0x8, addend: 0x0, symName: __ZNSt3__16vectorI9CzytelnikNS_9allocatorIS1_EEE17__destruct_at_endB8ue170006EPS1_, symObjAddr: 0x6048, symBinAddr: 0x100009670, symSize: 0x4C }
  - { offsetInCU: 0xEEA7, offset: 0x16C6B, size: 0x8, addend: 0x0, symName: __ZNSt3__16vectorI9CzytelnikNS_9allocatorIS1_EEE13__vdeallocateEv, symObjAddr: 0x6094, symBinAddr: 0x1000096BC, symSize: 0x94 }
  - { offsetInCU: 0xEECD, offset: 0x16C91, size: 0x8, addend: 0x0, symName: __ZNKSt3__16vectorI9CzytelnikNS_9allocatorIS1_EEE11__recommendB8ue170006Em, symObjAddr: 0x6128, symBinAddr: 0x100009750, symSize: 0xB4 }
  - { offsetInCU: 0xEF3E, offset: 0x16D02, size: 0x8, addend: 0x0, symName: __ZNSt3__14pairIPK9CzytelnikS3_EC1B8ue170006IS3_S3_LPv0EEEOT_OT0_, symObjAddr: 0x6488, symBinAddr: 0x100009AB0, symSize: 0x3C }
  - { offsetInCU: 0xEF9B, offset: 0x16D5F, size: 0x8, addend: 0x0, symName: __ZNSt3__14pairIPK9CzytelnikS3_EC2B8ue170006IS3_S3_LPv0EEEOT_OT0_, symObjAddr: 0x64C4, symBinAddr: 0x100009AEC, symSize: 0x34 }
  - { offsetInCU: 0xEFF8, offset: 0x16DBC, size: 0x8, addend: 0x0, symName: __ZNSt3__118__unwrap_iter_implIPK9CzytelnikLb1EE8__unwrapB8ue170006ES3_, symObjAddr: 0x64F8, symBinAddr: 0x100009B20, symSize: 0x24 }
  - { offsetInCU: 0xF01A, offset: 0x16DDE, size: 0x8, addend: 0x0, symName: __ZNSt3__116allocator_traitsINS_9allocatorI9CzytelnikEEE9constructB8ue170006IS2_JRKS2_EvEEvRS3_PT_DpOT0_, symObjAddr: 0x6530, symBinAddr: 0x100009B58, symSize: 0x34 }
  - { offsetInCU: 0xF073, offset: 0x16E37, size: 0x8, addend: 0x0, symName: __ZNSt3__19allocatorI9CzytelnikE9constructB8ue170006IS1_JRKS1_EEEvPT_DpOT0_, symObjAddr: 0x6564, symBinAddr: 0x100009B8C, symSize: 0x30 }
  - { offsetInCU: 0xF0EC, offset: 0x16EB0, size: 0x8, addend: 0x0, symName: __ZNKSt3__111__copy_loopINS_17_ClassicAlgPolicyEEclB8ue170006IPK9CzytelnikS6_PS4_EENS_4pairIT_T1_EES9_T0_SA_, symObjAddr: 0x668C, symBinAddr: 0x100009CB4, symSize: 0x88 }
  - { offsetInCU: 0xF155, offset: 0x16F19, size: 0x8, addend: 0x0, symName: __ZNSt3__14pairIPK9CzytelnikPS1_EC1B8ue170006IS3_S4_LPv0EEEOT_OT0_, symObjAddr: 0x6778, symBinAddr: 0x100009DA0, symSize: 0x3C }
  - { offsetInCU: 0xF1B2, offset: 0x16F76, size: 0x8, addend: 0x0, symName: __ZNSt3__14pairIPK9CzytelnikPS1_EC2B8ue170006IS3_S4_LPv0EEEOT_OT0_, symObjAddr: 0x67B4, symBinAddr: 0x100009DDC, symSize: 0x34 }
  - { offsetInCU: 0xF20F, offset: 0x16FD3, size: 0x8, addend: 0x0, symName: __ZNSt3__118__unwrap_iter_implIPK9CzytelnikLb1EE8__rewrapB8ue170006ES3_S3_, symObjAddr: 0x6824, symBinAddr: 0x100009E4C, symSize: 0x58 }
  - { offsetInCU: 0xF23F, offset: 0x17003, size: 0x8, addend: 0x0, symName: __ZNKSt3__16vectorI9CzytelnikNS_9allocatorIS1_EEE17__annotate_shrinkB8ue170006Em, symObjAddr: 0x687C, symBinAddr: 0x100009EA4, symSize: 0xD0 }
  - { offsetInCU: 0xF272, offset: 0x17036, size: 0x8, addend: 0x0, symName: __ZNSt3__16vectorI9CzytelnikNS_9allocatorIS1_EEE5clearB8ue170006Ev, symObjAddr: 0x694C, symBinAddr: 0x100009F74, symSize: 0x44 }
  - { offsetInCU: 0xF2A5, offset: 0x17069, size: 0x8, addend: 0x0, symName: __ZNSt3__16vectorI9CzytelnikNS_9allocatorIS1_EEE19__copy_assign_allocB8ue170006ERKS4_, symObjAddr: 0x6A38, symBinAddr: 0x10000A060, symSize: 0x2C }
  - { offsetInCU: 0xF2D8, offset: 0x1709C, size: 0x8, addend: 0x0, symName: __ZNSt3__16vectorI9CzytelnikNS_9allocatorIS1_EEE6assignIPS1_Li0EEEvT_S7_, symObjAddr: 0x6A64, symBinAddr: 0x10000A08C, symSize: 0x5C }
  - { offsetInCU: 0xF32B, offset: 0x170EF, size: 0x8, addend: 0x0, symName: __ZNSt3__16vectorI9CzytelnikNS_9allocatorIS1_EEE19__copy_assign_allocB8ue170006ERKS4_NS_17integral_constantIbLb0EEE, symObjAddr: 0x6AC0, symBinAddr: 0x10000A0E8, symSize: 0x14 }
  - { offsetInCU: 0xF367, offset: 0x1712B, size: 0x8, addend: 0x0, symName: __ZNSt3__16vectorI9CzytelnikNS_9allocatorIS1_EEE18__assign_with_sizeB8ue170006IPS1_S6_EEvT_T0_l, symObjAddr: 0x6AD4, symBinAddr: 0x10000A0FC, symSize: 0x164 }
  - { offsetInCU: 0xF417, offset: 0x171DB, size: 0x8, addend: 0x0, symName: __ZNKSt3__111__copy_loopINS_17_ClassicAlgPolicyEEclB8ue170006IP9CzytelnikS5_S5_EENS_4pairIT_T1_EES7_T0_S8_, symObjAddr: 0x6E7C, symBinAddr: 0x10000A4A4, symSize: 0x88 }
  - { offsetInCU: 0xF480, offset: 0x17244, size: 0x8, addend: 0x0, symName: __ZNSt3__16vectorI9CzytelnikNS_9allocatorIS1_EEE13__move_assignERS4_NS_17integral_constantIbLb1EEE, symObjAddr: 0x6F58, symBinAddr: 0x10000A580, symSize: 0x94 }
  - { offsetInCU: 0xF4C1, offset: 0x17285, size: 0x8, addend: 0x0, symName: __ZNSt3__16vectorI9CzytelnikNS_9allocatorIS1_EEE19__move_assign_allocB8ue170006ERS4_, symObjAddr: 0x6FEC, symBinAddr: 0x10000A614, symSize: 0x2C }
  - { offsetInCU: 0xF4F4, offset: 0x172B8, size: 0x8, addend: 0x0, symName: __ZNSt3__16vectorI9CzytelnikNS_9allocatorIS1_EEE19__move_assign_allocB8ue170006ERS4_NS_17integral_constantIbLb1EEE, symObjAddr: 0x7018, symBinAddr: 0x10000A640, symSize: 0x38 }
  - { offsetInCU: 0xF533, offset: 0x172F7, size: 0x8, addend: 0x0, symName: __ZNSt3__16vectorI9CzytelnikNS_9allocatorIS1_EEE22__construct_one_at_endB8ue170006IJRKS1_EEEvDpOT_, symObjAddr: 0x7050, symBinAddr: 0x10000A678, symSize: 0x90 }
  - { offsetInCU: 0xF582, offset: 0x17346, size: 0x8, addend: 0x0, symName: __ZNSt3__16vectorI9CzytelnikNS_9allocatorIS1_EEE21__push_back_slow_pathIRKS1_EEvOT_, symObjAddr: 0x70E0, symBinAddr: 0x10000A708, symSize: 0xD8 }
  - { offsetInCU: 0xF5DE, offset: 0x173A2, size: 0x8, addend: 0x0, symName: __ZNSt3__114__split_bufferI9CzytelnikRNS_9allocatorIS1_EEEC1EmmS4_, symObjAddr: 0x71B8, symBinAddr: 0x10000A7E0, symSize: 0x44 }
  - { offsetInCU: 0xF633, offset: 0x173F7, size: 0x8, addend: 0x0, symName: __ZNSt3__114__split_bufferI9CzytelnikRNS_9allocatorIS1_EEED1Ev, symObjAddr: 0x730C, symBinAddr: 0x10000A934, symSize: 0x2C }
  - { offsetInCU: 0xF65E, offset: 0x17422, size: 0x8, addend: 0x0, symName: __ZNSt3__114__split_bufferI9CzytelnikRNS_9allocatorIS1_EEEC2EmmS4_, symObjAddr: 0x7338, symBinAddr: 0x10000A960, symSize: 0xE0 }
  - { offsetInCU: 0xF6D1, offset: 0x17495, size: 0x8, addend: 0x0, symName: __ZNSt3__117__compressed_pairIP9CzytelnikRNS_9allocatorIS1_EEEC1B8ue170006IDnS5_EEOT_OT0_, symObjAddr: 0x7418, symBinAddr: 0x10000AA40, symSize: 0x3C }
  - { offsetInCU: 0xF727, offset: 0x174EB, size: 0x8, addend: 0x0, symName: __ZNSt3__114__split_bufferI9CzytelnikRNS_9allocatorIS1_EEE7__allocB8ue170006Ev, symObjAddr: 0x7454, symBinAddr: 0x10000AA7C, symSize: 0x28 }
  - { offsetInCU: 0xF74B, offset: 0x1750F, size: 0x8, addend: 0x0, symName: __ZNSt3__114__split_bufferI9CzytelnikRNS_9allocatorIS1_EEE9__end_capB8ue170006Ev, symObjAddr: 0x747C, symBinAddr: 0x10000AAA4, symSize: 0x28 }
  - { offsetInCU: 0xF76F, offset: 0x17533, size: 0x8, addend: 0x0, symName: __ZNSt3__117__compressed_pairIP9CzytelnikRNS_9allocatorIS1_EEEC2B8ue170006IDnS5_EEOT_OT0_, symObjAddr: 0x74A4, symBinAddr: 0x10000AACC, symSize: 0x48 }
  - { offsetInCU: 0xF7C5, offset: 0x17589, size: 0x8, addend: 0x0, symName: __ZNSt3__122__compressed_pair_elemIRNS_9allocatorI9CzytelnikEELi1ELb0EEC2B8ue170006IS4_vEEOT_, symObjAddr: 0x74EC, symBinAddr: 0x10000AB14, symSize: 0x20 }
  - { offsetInCU: 0xF806, offset: 0x175CA, size: 0x8, addend: 0x0, symName: __ZNSt3__117__compressed_pairIP9CzytelnikRNS_9allocatorIS1_EEE6secondB8ue170006Ev, symObjAddr: 0x750C, symBinAddr: 0x10000AB34, symSize: 0x28 }
  - { offsetInCU: 0xF82A, offset: 0x175EE, size: 0x8, addend: 0x0, symName: __ZNSt3__122__compressed_pair_elemIRNS_9allocatorI9CzytelnikEELi1ELb0EE5__getB8ue170006Ev, symObjAddr: 0x7534, symBinAddr: 0x10000AB5C, symSize: 0x18 }
  - { offsetInCU: 0xF84E, offset: 0x17612, size: 0x8, addend: 0x0, symName: __ZNSt3__117__compressed_pairIP9CzytelnikRNS_9allocatorIS1_EEE5firstB8ue170006Ev, symObjAddr: 0x754C, symBinAddr: 0x10000AB74, symSize: 0x24 }
  - { offsetInCU: 0xF872, offset: 0x17636, size: 0x8, addend: 0x0, symName: __ZNSt3__129_AllocatorDestroyRangeReverseINS_9allocatorI9CzytelnikEENS_16reverse_iteratorIPS2_EEEC1B8ue170006ERS3_RS6_S9_, symObjAddr: 0x7714, symBinAddr: 0x10000AD3C, symSize: 0x44 }
  - { offsetInCU: 0xF8C7, offset: 0x1768B, size: 0x8, addend: 0x0, symName: __ZNSt3__116allocator_traitsINS_9allocatorI9CzytelnikEEE9constructB8ue170006IS2_JS2_EvEEvRS3_PT_DpOT0_, symObjAddr: 0x7758, symBinAddr: 0x10000AD80, symSize: 0x34 }
  - { offsetInCU: 0xF920, offset: 0x176E4, size: 0x8, addend: 0x0, symName: __ZNSt3__128__exception_guard_exceptionsINS_29_AllocatorDestroyRangeReverseINS_9allocatorI9CzytelnikEENS_16reverse_iteratorIPS3_EEEEE10__completeB8ue170006Ev, symObjAddr: 0x778C, symBinAddr: 0x10000ADB4, symSize: 0x1C }
  - { offsetInCU: 0xF944, offset: 0x17708, size: 0x8, addend: 0x0, symName: __ZNSt3__128__exception_guard_exceptionsINS_29_AllocatorDestroyRangeReverseINS_9allocatorI9CzytelnikEENS_16reverse_iteratorIPS3_EEEEED1B8ue170006Ev, symObjAddr: 0x77A8, symBinAddr: 0x10000ADD0, symSize: 0x2C }
  - { offsetInCU: 0xF96C, offset: 0x17730, size: 0x8, addend: 0x0, symName: __ZNSt3__128__exception_guard_exceptionsINS_29_AllocatorDestroyRangeReverseINS_9allocatorI9CzytelnikEENS_16reverse_iteratorIPS3_EEEEEC1B8ue170006ES8_, symObjAddr: 0x77D4, symBinAddr: 0x10000ADFC, symSize: 0x34 }
  - { offsetInCU: 0xF9A3, offset: 0x17767, size: 0x8, addend: 0x0, symName: __ZNSt3__128__exception_guard_exceptionsINS_29_AllocatorDestroyRangeReverseINS_9allocatorI9CzytelnikEENS_16reverse_iteratorIPS3_EEEEEC2B8ue170006ES8_, symObjAddr: 0x7808, symBinAddr: 0x10000AE30, symSize: 0x30 }
  - { offsetInCU: 0xF9DA, offset: 0x1779E, size: 0x8, addend: 0x0, symName: __ZNSt3__129_AllocatorDestroyRangeReverseINS_9allocatorI9CzytelnikEENS_16reverse_iteratorIPS2_EEEC2B8ue170006ERS3_RS6_S9_, symObjAddr: 0x7838, symBinAddr: 0x10000AE60, symSize: 0x38 }
  - { offsetInCU: 0xFA2F, offset: 0x177F3, size: 0x8, addend: 0x0, symName: __ZNSt3__19allocatorI9CzytelnikE9constructB8ue170006IS1_JS1_EEEvPT_DpOT0_, symObjAddr: 0x7870, symBinAddr: 0x10000AE98, symSize: 0x30 }
  - { offsetInCU: 0xFA85, offset: 0x17849, size: 0x8, addend: 0x0, symName: __ZNSt3__128__exception_guard_exceptionsINS_29_AllocatorDestroyRangeReverseINS_9allocatorI9CzytelnikEENS_16reverse_iteratorIPS3_EEEEED2B8ue170006Ev, symObjAddr: 0x78A0, symBinAddr: 0x10000AEC8, symSize: 0x50 }
  - { offsetInCU: 0xFAAD, offset: 0x17871, size: 0x8, addend: 0x0, symName: __ZNKSt3__129_AllocatorDestroyRangeReverseINS_9allocatorI9CzytelnikEENS_16reverse_iteratorIPS2_EEEclB8ue170006Ev, symObjAddr: 0x78F0, symBinAddr: 0x10000AF18, symSize: 0xB4 }
  - { offsetInCU: 0xFAD2, offset: 0x17896, size: 0x8, addend: 0x0, symName: __ZNSt3__116reverse_iteratorINS0_IP9CzytelnikEEEC1B8ue170006ES3_, symObjAddr: 0x7A14, symBinAddr: 0x10000B03C, symSize: 0x3C }
  - { offsetInCU: 0xFB08, offset: 0x178CC, size: 0x8, addend: 0x0, symName: __ZNSt3__116reverse_iteratorINS0_IP9CzytelnikEEEppB8ue170006Ev, symObjAddr: 0x7AD4, symBinAddr: 0x10000B0FC, symSize: 0x30 }
  - { offsetInCU: 0xFB2C, offset: 0x178F0, size: 0x8, addend: 0x0, symName: __ZNKSt3__116reverse_iteratorINS0_IP9CzytelnikEEE4baseB8ue170006Ev, symObjAddr: 0x7B04, symBinAddr: 0x10000B12C, symSize: 0x24 }
  - { offsetInCU: 0xFB55, offset: 0x17919, size: 0x8, addend: 0x0, symName: __ZNSt3__119__to_address_helperINS_16reverse_iteratorINS1_IP9CzytelnikEEEEvE6__callB8ue170006ERKS5_, symObjAddr: 0x7B28, symBinAddr: 0x10000B150, symSize: 0x38 }
  - { offsetInCU: 0xFB77, offset: 0x1793B, size: 0x8, addend: 0x0, symName: __ZNKSt3__116reverse_iteratorINS0_IP9CzytelnikEEEptB8ue170006Ev, symObjAddr: 0x7B60, symBinAddr: 0x10000B188, symSize: 0x24 }
  - { offsetInCU: 0xFB9B, offset: 0x1795F, size: 0x8, addend: 0x0, symName: __ZNKSt3__116reverse_iteratorINS0_IP9CzytelnikEEEdeB8ue170006Ev, symObjAddr: 0x7B84, symBinAddr: 0x10000B1AC, symSize: 0x34 }
  - { offsetInCU: 0xFBCE, offset: 0x17992, size: 0x8, addend: 0x0, symName: __ZNSt3__116reverse_iteratorIP9CzytelnikEmmB8ue170006Ev, symObjAddr: 0x7BB8, symBinAddr: 0x10000B1E0, symSize: 0x20 }
  - { offsetInCU: 0xFBF2, offset: 0x179B6, size: 0x8, addend: 0x0, symName: __ZNSt3__116reverse_iteratorINS0_IP9CzytelnikEEEC2B8ue170006ES3_, symObjAddr: 0x7BD8, symBinAddr: 0x10000B200, symSize: 0x2C }
  - { offsetInCU: 0xFC28, offset: 0x179EC, size: 0x8, addend: 0x0, symName: __ZNSt3__114__split_bufferI9CzytelnikRNS_9allocatorIS1_EEED2Ev, symObjAddr: 0x7C04, symBinAddr: 0x10000B22C, symSize: 0x8C }
  - { offsetInCU: 0xFC53, offset: 0x17A17, size: 0x8, addend: 0x0, symName: __ZNSt3__114__split_bufferI9CzytelnikRNS_9allocatorIS1_EEE5clearB8ue170006Ev, symObjAddr: 0x7C90, symBinAddr: 0x10000B2B8, symSize: 0x28 }
  - { offsetInCU: 0xFC77, offset: 0x17A3B, size: 0x8, addend: 0x0, symName: __ZNKSt3__114__split_bufferI9CzytelnikRNS_9allocatorIS1_EEE8capacityB8ue170006Ev, symObjAddr: 0x7CB8, symBinAddr: 0x10000B2E0, symSize: 0x40 }
  - { offsetInCU: 0xFC9B, offset: 0x17A5F, size: 0x8, addend: 0x0, symName: __ZNSt3__114__split_bufferI9CzytelnikRNS_9allocatorIS1_EEE17__destruct_at_endB8ue170006EPS1_, symObjAddr: 0x7CF8, symBinAddr: 0x10000B320, symSize: 0x2C }
  - { offsetInCU: 0xFCCD, offset: 0x17A91, size: 0x8, addend: 0x0, symName: __ZNSt3__114__split_bufferI9CzytelnikRNS_9allocatorIS1_EEE17__destruct_at_endB8ue170006EPS1_NS_17integral_constantIbLb0EEE, symObjAddr: 0x7D24, symBinAddr: 0x10000B34C, symSize: 0x80 }
  - { offsetInCU: 0xFD0B, offset: 0x17ACF, size: 0x8, addend: 0x0, symName: __ZNKSt3__114__split_bufferI9CzytelnikRNS_9allocatorIS1_EEE9__end_capB8ue170006Ev, symObjAddr: 0x7DA4, symBinAddr: 0x10000B3CC, symSize: 0x28 }
  - { offsetInCU: 0xFD2F, offset: 0x17AF3, size: 0x8, addend: 0x0, symName: __ZNKSt3__117__compressed_pairIP9CzytelnikRNS_9allocatorIS1_EEE5firstB8ue170006Ev, symObjAddr: 0x7DCC, symBinAddr: 0x10000B3F4, symSize: 0x24 }
  - { offsetInCU: 0xFD53, offset: 0x17B17, size: 0x8, addend: 0x0, symName: __ZNSt3__16vectorI9CzytelnikNS_9allocatorIS1_EEE11__make_iterB8ue170006EPS1_, symObjAddr: 0x7DF0, symBinAddr: 0x10000B418, symSize: 0x30 }
  - { offsetInCU: 0xFD86, offset: 0x17B4A, size: 0x8, addend: 0x0, symName: __ZNSt3__111__wrap_iterIP9CzytelnikEC1B8ue170006ES2_, symObjAddr: 0x7E20, symBinAddr: 0x10000B448, symSize: 0x34 }
  - { offsetInCU: 0xFDBC, offset: 0x17B80, size: 0x8, addend: 0x0, symName: __ZNSt3__111__wrap_iterIP9CzytelnikEC2B8ue170006ES2_, symObjAddr: 0x7E54, symBinAddr: 0x10000B47C, symSize: 0x20 }
  - { offsetInCU: 0xFDF2, offset: 0x17BB6, size: 0x8, addend: 0x0, symName: __ZNSt3__111char_traitsIcE4findB8ue170006EPKcmRS2_, symObjAddr: 0x80AC, symBinAddr: 0x10000B6D4, symSize: 0x70 }
  - { offsetInCU: 0xFE30, offset: 0x17BF4, size: 0x8, addend: 0x0, symName: __ZNSt3__19allocatorIcEC1B8ue170006Ev, symObjAddr: 0x815C, symBinAddr: 0x10000B784, symSize: 0x2C }
  - { offsetInCU: 0xFE58, offset: 0x17C1C, size: 0x8, addend: 0x0, symName: __ZNKSt3__112basic_stringIcNS_11char_traitsIcEENS_9allocatorIcEEE15__get_long_sizeB8ue170006Ev, symObjAddr: 0x8188, symBinAddr: 0x10000B7B0, symSize: 0x28 }
  - { offsetInCU: 0xFE7C, offset: 0x17C40, size: 0x8, addend: 0x0, symName: __ZNKSt3__112basic_stringIcNS_11char_traitsIcEENS_9allocatorIcEEE16__get_short_sizeB8ue170006Ev, symObjAddr: 0x81B0, symBinAddr: 0x10000B7D8, symSize: 0x34 }
  - { offsetInCU: 0xFEA0, offset: 0x17C64, size: 0x8, addend: 0x0, symName: __ZNKSt3__16vectorI9CzytelnikNS_9allocatorIS1_EEE6cbeginB8ue170006Ev, symObjAddr: 0x822C, symBinAddr: 0x10000B854, symSize: 0x2C }
  - { offsetInCU: 0xFEC4, offset: 0x17C88, size: 0x8, addend: 0x0, symName: __ZNKSt3__111__wrap_iterIPK9CzytelnikE4baseB8ue170006Ev, symObjAddr: 0x8298, symBinAddr: 0x10000B8C0, symSize: 0x18 }
  - { offsetInCU: 0xFEE8, offset: 0x17CAC, size: 0x8, addend: 0x0, symName: __ZNKSt3__16vectorI9CzytelnikNS_9allocatorIS1_EEE5beginB8ue170006Ev, symObjAddr: 0x82B0, symBinAddr: 0x10000B8D8, symSize: 0x30 }
  - { offsetInCU: 0xFF0E, offset: 0x17CD2, size: 0x8, addend: 0x0, symName: __ZNKSt3__16vectorI9CzytelnikNS_9allocatorIS1_EEE11__make_iterB8ue170006EPKS1_, symObjAddr: 0x82E0, symBinAddr: 0x10000B908, symSize: 0x30 }
  - { offsetInCU: 0xFF41, offset: 0x17D05, size: 0x8, addend: 0x0, symName: __ZNSt3__111__wrap_iterIPK9CzytelnikEC1B8ue170006ES3_, symObjAddr: 0x8310, symBinAddr: 0x10000B938, symSize: 0x34 }
  - { offsetInCU: 0xFF77, offset: 0x17D3B, size: 0x8, addend: 0x0, symName: __ZNSt3__111__wrap_iterIPK9CzytelnikEC2B8ue170006ES3_, symObjAddr: 0x8344, symBinAddr: 0x10000B96C, symSize: 0x20 }
  - { offsetInCU: 0xFFB7, offset: 0x17D7B, size: 0x8, addend: 0x0, symName: __ZNKSt3__111__move_loopINS_17_ClassicAlgPolicyEEclB8ue170006IP9CzytelnikS5_S5_EENS_4pairIT_T1_EES7_T0_S8_, symObjAddr: 0x84A0, symBinAddr: 0x10000BAC8, symSize: 0x90 }
  - { offsetInCU: 0x10020, offset: 0x17DE4, size: 0x8, addend: 0x0, symName: __ZNSt3__18_IterOpsINS_17_ClassicAlgPolicyEE11__iter_moveB8ue170006IRP9CzytelnikEENS_9enable_ifIXsr12is_referenceIDTdeclsr3stdE7declvalIRT_EEEEE5valueEDTclsr3stdE4movedeclsr3stdE7declvalIS9_EEEEE4typeEOS8_, symObjAddr: 0x8530, symBinAddr: 0x10000BB58, symSize: 0x28 }
  - { offsetInCU: 0x1004B, offset: 0x17E0F, size: 0x8, addend: 0x0, symName: __ZNSt3__18_IterOpsINS_17_ClassicAlgPolicyEE25__validate_iter_referenceB8ue170006IRP9CzytelnikEEvv, symObjAddr: 0x8558, symBinAddr: 0x10000BB80, symSize: 0x4 }
  - { offsetInCU: 0x500C, offset: 0x1CF4A, size: 0x8, addend: 0x0, symName: __ZNSt3__1lsB8ue170006IcNS_11char_traitsIcEENS_9allocatorIcEEEERNS_13basic_ostreamIT_T0_EES9_RKNS_12basic_stringIS6_S7_T1_EE, symObjAddr: 0x1314, symBinAddr: 0x10000CCF0, symSize: 0x4C }
  - { offsetInCU: 0x5064, offset: 0x1CFA2, size: 0x8, addend: 0x0, symName: __ZNSt3__1plB8ue170006IcNS_11char_traitsIcEENS_9allocatorIcEEEENS_12basic_stringIT_T0_T1_EEOS9_SA_, symObjAddr: 0x2698, symBinAddr: 0x10000DF44, symSize: 0x40 }
  - { offsetInCU: 0x50BC, offset: 0x1CFFA, size: 0x8, addend: 0x0, symName: __ZNSt3__1plB8ue170006IcNS_11char_traitsIcEENS_9allocatorIcEEEENS_12basic_stringIT_T0_T1_EEOS9_PKS6_, symObjAddr: 0x26D8, symBinAddr: 0x10000DF84, symSize: 0x40 }
  - { offsetInCU: 0x5114, offset: 0x1D052, size: 0x8, addend: 0x0, symName: __ZNSt3__1plB8ue170006IcNS_11char_traitsIcEENS_9allocatorIcEEEENS_12basic_stringIT_T0_T1_EEOS9_S6_, symObjAddr: 0x2844, symBinAddr: 0x10000E0F0, symSize: 0x40 }
  - { offsetInCU: 0x56F7, offset: 0x1D635, size: 0x8, addend: 0x0, symName: __ZNSt3__113__countl_zeroB8ue170006IjEEiT_, symObjAddr: 0x4998, symBinAddr: 0x10000EA80, symSize: 0x54 }
  - { offsetInCU: 0x5792, offset: 0x1D6D0, size: 0x8, addend: 0x0, symName: __ZNSt3__112__libcpp_clzB8ue170006Ej, symObjAddr: 0x4F1C, symBinAddr: 0x10000F004, symSize: 0x18 }
  - { offsetInCU: 0x57BE, offset: 0x1D6FC, size: 0x8, addend: 0x0, symName: __ZNSt3__113__countl_zeroB8ue170006ImEEiT_, symObjAddr: 0x522C, symBinAddr: 0x10000F314, symSize: 0x54 }
  - { offsetInCU: 0x57F3, offset: 0x1D731, size: 0x8, addend: 0x0, symName: __ZNSt3__112__libcpp_clzB8ue170006Em, symObjAddr: 0x56D4, symBinAddr: 0x10000F7BC, symSize: 0x1C }
  - { offsetInCU: 0x5C33, offset: 0x1DB71, size: 0x8, addend: 0x0, symName: __ZN9Czytelnik8gen_dataEv, symObjAddr: 0x1C54, symBinAddr: 0x10000D500, symSize: 0x8F4 }
  - { offsetInCU: 0x5C59, offset: 0x1DB97, size: 0x8, addend: 0x0, symName: __ZZN9Czytelnik8gen_dataEvE2rd, symObjAddr: 0x2AAA8, symBinAddr: 0x10001C880, symSize: 0x0 }
  - { offsetInCU: 0x5C6F, offset: 0x1DBAD, size: 0x8, addend: 0x0, symName: __ZZN9Czytelnik8gen_dataEvE3dfe, symObjAddr: 0x2AAB8, symBinAddr: 0x10001C890, symSize: 0x0 }
  - { offsetInCU: 0x5C85, offset: 0x1DBC3, size: 0x8, addend: 0x0, symName: __ZZN9Czytelnik8gen_dataEvE11numDistImie, symObjAddr: 0x2AAC8, symBinAddr: 0x10001C8A0, symSize: 0x0 }
  - { offsetInCU: 0x5C9B, offset: 0x1DBD9, size: 0x8, addend: 0x0, symName: __ZZN9Czytelnik8gen_dataEvE15numDistNazwisko, symObjAddr: 0x2AAD8, symBinAddr: 0x10001C8B0, symSize: 0x0 }
  - { offsetInCU: 0x5CB1, offset: 0x1DBEF, size: 0x8, addend: 0x0, symName: __ZZN9Czytelnik8gen_dataEvE12numDistUlica, symObjAddr: 0x2AAE8, symBinAddr: 0x10001C8C0, symSize: 0x0 }
  - { offsetInCU: 0x5CC7, offset: 0x1DC05, size: 0x8, addend: 0x0, symName: __ZZN9Czytelnik8gen_dataEvE12numDistEmail, symObjAddr: 0x2AAF8, symBinAddr: 0x10001C8D0, symSize: 0x0 }
  - { offsetInCU: 0x5CDD, offset: 0x1DC1B, size: 0x8, addend: 0x0, symName: __ZZN9Czytelnik8gen_dataEvE17DistNumerTelefonu, symObjAddr: 0x2AB08, symBinAddr: 0x10001C8E0, symSize: 0x0 }
  - { offsetInCU: 0x5CF3, offset: 0x1DC31, size: 0x8, addend: 0x0, symName: __ZZN9Czytelnik8gen_dataEvE13DistNumerDomu, symObjAddr: 0x2AB20, symBinAddr: 0x10001C8F8, symSize: 0x0 }
  - { offsetInCU: 0x5F82, offset: 0x1DEC0, size: 0x8, addend: 0x0, symName: __ZNSt3__124uniform_int_distributionIiEclINS_26linear_congruential_engineIjLj48271ELj0ELj2147483647EEEEEiRT_RKNS1_10param_typeE, symObjAddr: 0x4780, symBinAddr: 0x10000E868, symSize: 0x188 }
  - { offsetInCU: 0x603E, offset: 0x1DF7C, size: 0x8, addend: 0x0, symName: __ZNSt3__124uniform_int_distributionImEclINS_26linear_congruential_engineIjLj48271ELj0ELj2147483647EEEEEmRT_RKNS1_10param_typeE, symObjAddr: 0x5028, symBinAddr: 0x10000F110, symSize: 0x174 }
  - { offsetInCU: 0x676A, offset: 0x1E6A8, size: 0x8, addend: 0x0, symName: __Z7toloweri, symObjAddr: 0x27F0, symBinAddr: 0x10000E09C, symSize: 0x24 }
  - { offsetInCU: 0x7E8B, offset: 0x1FDC9, size: 0x8, addend: 0x0, symName: __ZN9CzytelnikC2Ev, symObjAddr: 0x0, symBinAddr: 0x10000BB84, symSize: 0x1D4 }
  - { offsetInCU: 0x7EB6, offset: 0x1FDF4, size: 0x8, addend: 0x0, symName: __ZN22WyswietlalnyEdytowalnyC2Ev, symObjAddr: 0x1D4, symBinAddr: 0x10000BD58, symSize: 0x24 }
  - { offsetInCU: 0x7EE1, offset: 0x1FE1F, size: 0x8, addend: 0x0, symName: __ZN9Czytelnik5AdresC1Ev, symObjAddr: 0x224, symBinAddr: 0x10000BD7C, symSize: 0x2C }
  - { offsetInCU: 0x7F09, offset: 0x1FE47, size: 0x8, addend: 0x0, symName: __ZNSt3__112basic_stringIcNS_11char_traitsIcEENS_9allocatorIcEEEaSB8ue170006EPKc, symObjAddr: 0x250, symBinAddr: 0x10000BDA8, symSize: 0x2C }
  - { offsetInCU: 0x7F3C, offset: 0x1FE7A, size: 0x8, addend: 0x0, symName: __ZN9Czytelnik5AdresaSEOS0_, symObjAddr: 0x2B0, symBinAddr: 0x10000BDD4, symSize: 0x70 }
  - { offsetInCU: 0x7F6E, offset: 0x1FEAC, size: 0x8, addend: 0x0, symName: __ZN9Czytelnik5AdresD1Ev, symObjAddr: 0x320, symBinAddr: 0x10000BE44, symSize: 0x2C }
  - { offsetInCU: 0x7F99, offset: 0x1FED7, size: 0x8, addend: 0x0, symName: __ZN22WyswietlalnyEdytowalnyD2Ev, symObjAddr: 0x34C, symBinAddr: 0x10000BE70, symSize: 0x14 }
  - { offsetInCU: 0x7FC1, offset: 0x1FEFF, size: 0x8, addend: 0x0, symName: __ZN9CzytelnikC1Ev, symObjAddr: 0x360, symBinAddr: 0x10000BE84, symSize: 0x2C }
  - { offsetInCU: 0x7FEC, offset: 0x1FF2A, size: 0x8, addend: 0x0, symName: __ZN9CzytelnikC2ENSt3__112basic_stringIcNS0_11char_traitsIcEENS0_9allocatorIcEEEES6_S6_jNS_5AdresE, symObjAddr: 0x38C, symBinAddr: 0x10000BEB0, symSize: 0x150 }
  - { offsetInCU: 0x8061, offset: 0x1FF9F, size: 0x8, addend: 0x0, symName: __ZN9Czytelnik5AdresC1ERKS0_, symObjAddr: 0x4DC, symBinAddr: 0x10000C000, symSize: 0x34 }
  - { offsetInCU: 0x8097, offset: 0x1FFD5, size: 0x8, addend: 0x0, symName: __ZN9CzytelnikC1ENSt3__112basic_stringIcNS0_11char_traitsIcEENS0_9allocatorIcEEEES6_S6_jNS_5AdresE, symObjAddr: 0x510, symBinAddr: 0x10000C034, symSize: 0x54 }
  - { offsetInCU: 0x810C, offset: 0x2004A, size: 0x8, addend: 0x0, symName: __ZN9CzytelnikC2ERKS_, symObjAddr: 0x564, symBinAddr: 0x10000C088, symSize: 0x304 }
  - { offsetInCU: 0x8163, offset: 0x200A1, size: 0x8, addend: 0x0, symName: __ZN9CzytelnikC1ERKS_, symObjAddr: 0x868, symBinAddr: 0x10000C38C, symSize: 0x34 }
  - { offsetInCU: 0x819B, offset: 0x200D9, size: 0x8, addend: 0x0, symName: __ZN9CzytelnikaSERKS_, symObjAddr: 0x89C, symBinAddr: 0x10000C3C0, symSize: 0x2D4 }
  - { offsetInCU: 0x81EF, offset: 0x2012D, size: 0x8, addend: 0x0, symName: __ZN9Czytelnik5AdresaSERKS0_, symObjAddr: 0xB70, symBinAddr: 0x10000C694, symSize: 0x70 }
  - { offsetInCU: 0x8220, offset: 0x2015E, size: 0x8, addend: 0x0, symName: __ZNK9CzytelnikeqERKS_, symObjAddr: 0xBE0, symBinAddr: 0x10000C704, symSize: 0xDC }
  - { offsetInCU: 0x8256, offset: 0x20194, size: 0x8, addend: 0x0, symName: __ZNK9Czytelnik5AdreseqERKS0_, symObjAddr: 0xE04, symBinAddr: 0x10000C7E0, symSize: 0x68 }
  - { offsetInCU: 0x8288, offset: 0x201C6, size: 0x8, addend: 0x0, symName: __ZN9CzytelnikC2EOS_, symObjAddr: 0xE6C, symBinAddr: 0x10000C848, symSize: 0xD0 }
  - { offsetInCU: 0x82C1, offset: 0x201FF, size: 0x8, addend: 0x0, symName: __ZNSt3__112basic_stringIcNS_11char_traitsIcEENS_9allocatorIcEEEC1B8ue170006EOS5_, symObjAddr: 0xF3C, symBinAddr: 0x10000C918, symSize: 0x34 }
  - { offsetInCU: 0x82F8, offset: 0x20236, size: 0x8, addend: 0x0, symName: __ZN9Czytelnik5AdresC1EOS0_, symObjAddr: 0xF70, symBinAddr: 0x10000C94C, symSize: 0x34 }
  - { offsetInCU: 0x832E, offset: 0x2026C, size: 0x8, addend: 0x0, symName: __ZN9CzytelnikC1EOS_, symObjAddr: 0xFA4, symBinAddr: 0x10000C980, symSize: 0x34 }
  - { offsetInCU: 0x8366, offset: 0x202A4, size: 0x8, addend: 0x0, symName: __ZN9CzytelnikaSEOS_, symObjAddr: 0xFD8, symBinAddr: 0x10000C9B4, symSize: 0x158 }
  - { offsetInCU: 0x839B, offset: 0x202D9, size: 0x8, addend: 0x0, symName: __ZlsRNSt3__113basic_ostreamIcNS_11char_traitsIcEEEERK9Czytelnik, symObjAddr: 0x1130, symBinAddr: 0x10000CB0C, symSize: 0x1E4 }
  - { offsetInCU: 0x83F3, offset: 0x20331, size: 0x8, addend: 0x0, symName: __ZlsRNSt3__113basic_ostreamIcNS_11char_traitsIcEEEERKN9Czytelnik5AdresE, symObjAddr: 0x142C, symBinAddr: 0x10000CD3C, symSize: 0x48 }
  - { offsetInCU: 0x842E, offset: 0x2036C, size: 0x8, addend: 0x0, symName: __ZNK9CzytelnikixEm, symObjAddr: 0x1474, symBinAddr: 0x10000CD84, symSize: 0x24 }
  - { offsetInCU: 0x8462, offset: 0x203A0, size: 0x8, addend: 0x0, symName: __ZrsRNSt3__113basic_istreamIcNS_11char_traitsIcEEEER9Czytelnik, symObjAddr: 0x1498, symBinAddr: 0x10000CDA8, symSize: 0xEC }
  - { offsetInCU: 0x849C, offset: 0x203DA, size: 0x8, addend: 0x0, symName: __ZrsRNSt3__113basic_istreamIcNS_11char_traitsIcEEEERN9Czytelnik5AdresE, symObjAddr: 0x15E8, symBinAddr: 0x10000CE94, symSize: 0x68 }
  - { offsetInCU: 0x84D7, offset: 0x20415, size: 0x8, addend: 0x0, symName: __ZN9CzytelnikD2Ev, symObjAddr: 0x1650, symBinAddr: 0x10000CEFC, symSize: 0x118 }
  - { offsetInCU: 0x8502, offset: 0x20440, size: 0x8, addend: 0x0, symName: __ZN9CzytelnikD1Ev, symObjAddr: 0x1768, symBinAddr: 0x10000D014, symSize: 0x2C }
  - { offsetInCU: 0x852D, offset: 0x2046B, size: 0x8, addend: 0x0, symName: __ZN9CzytelnikD0Ev, symObjAddr: 0x1794, symBinAddr: 0x10000D040, symSize: 0x30 }
  - { offsetInCU: 0x8558, offset: 0x20496, size: 0x8, addend: 0x0, symName: __ZN9Czytelnik5AdresD2Ev, symObjAddr: 0x17C4, symBinAddr: 0x10000D070, symSize: 0x2C }
  - { offsetInCU: 0x8583, offset: 0x204C1, size: 0x8, addend: 0x0, symName: __ZN9CzytelnikixEm, symObjAddr: 0x17F0, symBinAddr: 0x10000D09C, symSize: 0x24 }
  - { offsetInCU: 0x85B7, offset: 0x204F5, size: 0x8, addend: 0x0, symName: __ZNK9Czytelnik8wyswietlEv, symObjAddr: 0x1814, symBinAddr: 0x10000D0C0, symSize: 0x54 }
  - { offsetInCU: 0x85DE, offset: 0x2051C, size: 0x8, addend: 0x0, symName: __ZN9Czytelnik6edytujEv, symObjAddr: 0x1868, symBinAddr: 0x10000D114, symSize: 0x154 }
  - { offsetInCU: 0x8614, offset: 0x20552, size: 0x8, addend: 0x0, symName: __ZN9Czytelnik15powiekszTabliceEv, symObjAddr: 0x19D0, symBinAddr: 0x10000D27C, symSize: 0x230 }
  - { offsetInCU: 0x8668, offset: 0x205A6, size: 0x8, addend: 0x0, symName: __ZN9Czytelnik5dodajER7Ksiazka, symObjAddr: 0x1C00, symBinAddr: 0x10000D4AC, symSize: 0x54 }
  - { offsetInCU: 0x869E, offset: 0x205DC, size: 0x8, addend: 0x0, symName: __ZNSt3__113random_deviceC1B8ue170006Ev, symObjAddr: 0x2548, symBinAddr: 0x10000DDF4, symSize: 0x74 }
  - { offsetInCU: 0x86C6, offset: 0x20604, size: 0x8, addend: 0x0, symName: __ZNSt3__126linear_congruential_engineIjLj48271ELj0ELj2147483647EEC1B8ue170006Ej, symObjAddr: 0x25BC, symBinAddr: 0x10000DE68, symSize: 0x34 }
  - { offsetInCU: 0x86FC, offset: 0x2063A, size: 0x8, addend: 0x0, symName: __ZNSt3__124uniform_int_distributionIiEC1B8ue170006Eii, symObjAddr: 0x25F0, symBinAddr: 0x10000DE9C, symSize: 0x3C }
  - { offsetInCU: 0x8740, offset: 0x2067E, size: 0x8, addend: 0x0, symName: __ZNSt3__124uniform_int_distributionImEC1B8ue170006Emm, symObjAddr: 0x262C, symBinAddr: 0x10000DED8, symSize: 0x3C }
  - { offsetInCU: 0x8784, offset: 0x206C2, size: 0x8, addend: 0x0, symName: __ZNSt3__124uniform_int_distributionIiEclB8ue170006INS_26linear_congruential_engineIjLj48271ELj0ELj2147483647EEEEEiRT_, symObjAddr: 0x2668, symBinAddr: 0x10000DF14, symSize: 0x30 }
  - { offsetInCU: 0x87C4, offset: 0x20702, size: 0x8, addend: 0x0, symName: __ZNSt3__112basic_stringIcNS_11char_traitsIcEENS_9allocatorIcEEEC1INS_17basic_string_viewIcS2_EELi0EEERKT_, symObjAddr: 0x2718, symBinAddr: 0x10000DFC4, symSize: 0x34 }
  - { offsetInCU: 0x880A, offset: 0x20748, size: 0x8, addend: 0x0, symName: __ZN9Czytelnik14set_numer_domuEj, symObjAddr: 0x274C, symBinAddr: 0x10000DFF8, symSize: 0x30 }
  - { offsetInCU: 0x8841, offset: 0x2077F, size: 0x8, addend: 0x0, symName: __ZN9Czytelnik9set_ulicaENSt3__112basic_stringIcNS0_11char_traitsIcEENS0_9allocatorIcEEEE, symObjAddr: 0x277C, symBinAddr: 0x10000E028, symSize: 0x74 }
  - { offsetInCU: 0x8879, offset: 0x207B7, size: 0x8, addend: 0x0, symName: __ZNSt3__112basic_stringIcNS_11char_traitsIcEENS_9allocatorIcEEEixB8ue170006Em, symObjAddr: 0x2814, symBinAddr: 0x10000E0C0, symSize: 0x30 }
  - { offsetInCU: 0x88AC, offset: 0x207EA, size: 0x8, addend: 0x0, symName: __ZNSt3__124uniform_int_distributionImEclB8ue170006INS_26linear_congruential_engineIjLj48271ELj0ELj2147483647EEEEEmRT_, symObjAddr: 0x2884, symBinAddr: 0x10000E130, symSize: 0x30 }
  - { offsetInCU: 0x88E6, offset: 0x20824, size: 0x8, addend: 0x0, symName: __ZNK9Czytelnik8get_imieEv, symObjAddr: 0x28B4, symBinAddr: 0x10000E160, symSize: 0x3C }
  - { offsetInCU: 0x890D, offset: 0x2084B, size: 0x8, addend: 0x0, symName: __ZNK9Czytelnik9get_emailEv, symObjAddr: 0x28F0, symBinAddr: 0x10000E19C, symSize: 0x3C }
  - { offsetInCU: 0x8935, offset: 0x20873, size: 0x8, addend: 0x0, symName: __ZNK9Czytelnik18get_numer_telefonuEv, symObjAddr: 0x292C, symBinAddr: 0x10000E1D8, symSize: 0x3C }
  - { offsetInCU: 0x895D, offset: 0x2089B, size: 0x8, addend: 0x0, symName: __ZNK9Czytelnik12get_numer_IDEv, symObjAddr: 0x2968, symBinAddr: 0x10000E214, symSize: 0x18 }
  - { offsetInCU: 0x8985, offset: 0x208C3, size: 0x8, addend: 0x0, symName: __ZNK9Czytelnik9get_adresEv, symObjAddr: 0x2980, symBinAddr: 0x10000E22C, symSize: 0x3C }
  - { offsetInCU: 0x89AD, offset: 0x208EB, size: 0x8, addend: 0x0, symName: __ZNK9Czytelnik9get_ulicaEv, symObjAddr: 0x29BC, symBinAddr: 0x10000E268, symSize: 0x30 }
  - { offsetInCU: 0x89D5, offset: 0x20913, size: 0x8, addend: 0x0, symName: __ZNK9Czytelnik5Adres9get_ulicaEv, symObjAddr: 0x29EC, symBinAddr: 0x10000E298, symSize: 0x38 }
  - { offsetInCU: 0x89F9, offset: 0x20937, size: 0x8, addend: 0x0, symName: __ZNK9Czytelnik14get_numer_domuEv, symObjAddr: 0x2A24, symBinAddr: 0x10000E2D0, symSize: 0x28 }
  - { offsetInCU: 0x8A21, offset: 0x2095F, size: 0x8, addend: 0x0, symName: __ZNK9Czytelnik5Adres14get_numer_domuEv, symObjAddr: 0x2A4C, symBinAddr: 0x10000E2F8, symSize: 0x18 }
  - { offsetInCU: 0x8A45, offset: 0x20983, size: 0x8, addend: 0x0, symName: __ZNK9Czytelnik23get_wypozyczone_ksiazkiEv, symObjAddr: 0x2A64, symBinAddr: 0x10000E310, symSize: 0x18 }
  - { offsetInCU: 0x8A6D, offset: 0x209AB, size: 0x8, addend: 0x0, symName: __ZNK9Czytelnik32get_liczba_wypozyczonych_ksiazekEv, symObjAddr: 0x2A7C, symBinAddr: 0x10000E328, symSize: 0x18 }
  - { offsetInCU: 0x8A95, offset: 0x209D3, size: 0x8, addend: 0x0, symName: __ZN9Czytelnik8set_imieENSt3__112basic_stringIcNS0_11char_traitsIcEENS0_9allocatorIcEEEE, symObjAddr: 0x2A94, symBinAddr: 0x10000E340, symSize: 0x30 }
  - { offsetInCU: 0x8ACD, offset: 0x20A0B, size: 0x8, addend: 0x0, symName: __ZN9Czytelnik9set_emailENSt3__112basic_stringIcNS0_11char_traitsIcEENS0_9allocatorIcEEEE, symObjAddr: 0x2AC4, symBinAddr: 0x10000E370, symSize: 0x30 }
  - { offsetInCU: 0x8B05, offset: 0x20A43, size: 0x8, addend: 0x0, symName: __ZN9Czytelnik18set_numer_telefonuENSt3__112basic_stringIcNS0_11char_traitsIcEENS0_9allocatorIcEEEE, symObjAddr: 0x2AF4, symBinAddr: 0x10000E3A0, symSize: 0x30 }
  - { offsetInCU: 0x8B3D, offset: 0x20A7B, size: 0x8, addend: 0x0, symName: __ZN9Czytelnik12set_numer_IDEj, symObjAddr: 0x2B24, symBinAddr: 0x10000E3D0, symSize: 0x20 }
  - { offsetInCU: 0x8B74, offset: 0x20AB2, size: 0x8, addend: 0x0, symName: __ZN9Czytelnik9set_adresENS_5AdresE, symObjAddr: 0x2B44, symBinAddr: 0x10000E3F0, symSize: 0x30 }
  - { offsetInCU: 0x8BAC, offset: 0x20AEA, size: 0x8, addend: 0x0, symName: __ZN9Czytelnik5Adres9set_ulicaENSt3__112basic_stringIcNS1_11char_traitsIcEENS1_9allocatorIcEEEE, symObjAddr: 0x2B74, symBinAddr: 0x10000E420, symSize: 0x2C }
  - { offsetInCU: 0x8BDF, offset: 0x20B1D, size: 0x8, addend: 0x0, symName: __ZN9Czytelnik5Adres14set_numer_domuEj, symObjAddr: 0x2BA0, symBinAddr: 0x10000E44C, symSize: 0x20 }
  - { offsetInCU: 0x8C11, offset: 0x20B4F, size: 0x8, addend: 0x0, symName: __ZN9Czytelnik23set_wypozyczone_ksiazkiEP7Ksiazka, symObjAddr: 0x2BC0, symBinAddr: 0x10000E46C, symSize: 0x20 }
  - { offsetInCU: 0x8C48, offset: 0x20B86, size: 0x8, addend: 0x0, symName: __ZN9Czytelnik32set_liczba_wypozyczonych_ksiazekEm, symObjAddr: 0x2BE0, symBinAddr: 0x10000E48C, symSize: 0x20 }
  - { offsetInCU: 0x8C7F, offset: 0x20BBD, size: 0x8, addend: 0x0, symName: __ZN22WyswietlalnyEdytowalnyD1Ev, symObjAddr: 0x2C00, symBinAddr: 0x10000E4AC, symSize: 0x14 }
  - { offsetInCU: 0x8CA7, offset: 0x20BE5, size: 0x8, addend: 0x0, symName: __ZN22WyswietlalnyEdytowalnyD0Ev, symObjAddr: 0x2C14, symBinAddr: 0x10000E4C0, symSize: 0xC }
  - { offsetInCU: 0x8CCF, offset: 0x20C0D, size: 0x8, addend: 0x0, symName: __ZN9Czytelnik5AdresC2Ev, symObjAddr: 0x2C20, symBinAddr: 0x10000E4CC, symSize: 0x80 }
  - { offsetInCU: 0x8CF7, offset: 0x20C35, size: 0x8, addend: 0x0, symName: __ZN9Czytelnik5AdresC2ERKS0_, symObjAddr: 0x2CA0, symBinAddr: 0x10000E54C, symSize: 0x70 }
  - { offsetInCU: 0x8D2D, offset: 0x20C6B, size: 0x8, addend: 0x0, symName: __ZN9Czytelnik5AdresC2EOS0_, symObjAddr: 0x2D10, symBinAddr: 0x10000E5BC, symSize: 0x48 }
  - { offsetInCU: 0x8E13, offset: 0x20D51, size: 0x8, addend: 0x0, symName: __ZNSt3__112basic_stringIcNS_11char_traitsIcEENS_9allocatorIcEEEC2B8ue170006EOS5_, symObjAddr: 0x451C, symBinAddr: 0x10000E604, symSize: 0x48 }
  - { offsetInCU: 0x8E4A, offset: 0x20D88, size: 0x8, addend: 0x0, symName: __ZNSt3__126linear_congruential_engineIjLj48271ELj0ELj2147483647EEC2B8ue170006Ej, symObjAddr: 0x4564, symBinAddr: 0x10000E64C, symSize: 0x34 }
  - { offsetInCU: 0x8E80, offset: 0x20DBE, size: 0x8, addend: 0x0, symName: __ZNSt3__126linear_congruential_engineIjLj48271ELj0ELj2147483647EE4seedB8ue170006Ej, symObjAddr: 0x4598, symBinAddr: 0x10000E680, symSize: 0x2C }
  - { offsetInCU: 0x8EB2, offset: 0x20DF0, size: 0x8, addend: 0x0, symName: __ZNSt3__126linear_congruential_engineIjLj48271ELj0ELj2147483647EE4seedB8ue170006ENS_17integral_constantIbLb0EEENS2_IbLb1EEEj, symObjAddr: 0x45C4, symBinAddr: 0x10000E6AC, symSize: 0x74 }
  - { offsetInCU: 0x8EFD, offset: 0x20E3B, size: 0x8, addend: 0x0, symName: __ZNSt3__124uniform_int_distributionIiEC2B8ue170006Eii, symObjAddr: 0x4638, symBinAddr: 0x10000E720, symSize: 0x3C }
  - { offsetInCU: 0x8F41, offset: 0x20E7F, size: 0x8, addend: 0x0, symName: __ZNSt3__124uniform_int_distributionIiE10param_typeC1B8ue170006Eii, symObjAddr: 0x4674, symBinAddr: 0x10000E75C, symSize: 0x3C }
  - { offsetInCU: 0x8F85, offset: 0x20EC3, size: 0x8, addend: 0x0, symName: __ZNSt3__124uniform_int_distributionIiE10param_typeC2B8ue170006Eii, symObjAddr: 0x46B0, symBinAddr: 0x10000E798, symSize: 0x2C }
  - { offsetInCU: 0x8FC9, offset: 0x20F07, size: 0x8, addend: 0x0, symName: __ZNSt3__124uniform_int_distributionImEC2B8ue170006Emm, symObjAddr: 0x46DC, symBinAddr: 0x10000E7C4, symSize: 0x3C }
  - { offsetInCU: 0x900D, offset: 0x20F4B, size: 0x8, addend: 0x0, symName: __ZNSt3__124uniform_int_distributionImE10param_typeC1B8ue170006Emm, symObjAddr: 0x4718, symBinAddr: 0x10000E800, symSize: 0x3C }
  - { offsetInCU: 0x9051, offset: 0x20F8F, size: 0x8, addend: 0x0, symName: __ZNSt3__124uniform_int_distributionImE10param_typeC2B8ue170006Emm, symObjAddr: 0x4754, symBinAddr: 0x10000E83C, symSize: 0x2C }
  - { offsetInCU: 0x9095, offset: 0x20FD3, size: 0x8, addend: 0x0, symName: __ZNKSt3__124uniform_int_distributionIiE10param_type1bB8ue170006Ev, symObjAddr: 0x4908, symBinAddr: 0x10000E9F0, symSize: 0x18 }
  - { offsetInCU: 0x90B9, offset: 0x20FF7, size: 0x8, addend: 0x0, symName: __ZNKSt3__124uniform_int_distributionIiE10param_type1aB8ue170006Ev, symObjAddr: 0x4920, symBinAddr: 0x10000EA08, symSize: 0x18 }
  - { offsetInCU: 0x90DD, offset: 0x2101B, size: 0x8, addend: 0x0, symName: __ZNSt3__125__independent_bits_engineINS_26linear_congruential_engineIjLj48271ELj0ELj2147483647EEEjEC1ERS2_m, symObjAddr: 0x4938, symBinAddr: 0x10000EA20, symSize: 0x3C }
  - { offsetInCU: 0x9123, offset: 0x21061, size: 0x8, addend: 0x0, symName: __ZNSt3__125__independent_bits_engineINS_26linear_congruential_engineIjLj48271ELj0ELj2147483647EEEjEclB8ue170006Ev, symObjAddr: 0x4974, symBinAddr: 0x10000EA5C, symSize: 0x24 }
  - { offsetInCU: 0x9147, offset: 0x21085, size: 0x8, addend: 0x0, symName: __ZNSt3__114numeric_limitsIjE3maxB8ue170006Ev, symObjAddr: 0x49EC, symBinAddr: 0x10000EAD4, symSize: 0x14 }
  - { offsetInCU: 0x915B, offset: 0x21099, size: 0x8, addend: 0x0, symName: __ZNSt3__125__independent_bits_engineINS_26linear_congruential_engineIjLj48271ELj0ELj2147483647EEEjEC2ERS2_m, symObjAddr: 0x4A00, symBinAddr: 0x10000EAE8, symSize: 0x270 }
  - { offsetInCU: 0x91A0, offset: 0x210DE, size: 0x8, addend: 0x0, symName: __ZNSt3__125__independent_bits_engineINS_26linear_congruential_engineIjLj48271ELj0ELj2147483647EEEjE6__evalENS_17integral_constantIbLb1EEE, symObjAddr: 0x4C70, symBinAddr: 0x10000ED58, symSize: 0x1E8 }
  - { offsetInCU: 0x9267, offset: 0x211A5, size: 0x8, addend: 0x0, symName: __ZNSt3__126linear_congruential_engineIjLj48271ELj0ELj2147483647EEclB8ue170006Ev, symObjAddr: 0x4E58, symBinAddr: 0x10000EF40, symSize: 0x34 }
  - { offsetInCU: 0x928B, offset: 0x211C9, size: 0x8, addend: 0x0, symName: __ZNSt3__126linear_congruential_engineIjLj48271ELj0ELj2147483647EE3minB8ue170006Ev, symObjAddr: 0x4E8C, symBinAddr: 0x10000EF74, symSize: 0x8 }
  - { offsetInCU: 0x92A9, offset: 0x211E7, size: 0x8, addend: 0x0, symName: __ZNSt3__18__lce_taILy48271ELy0ELy2147483647ELy4294967295ELb1EE4nextB8ue170006Ej, symObjAddr: 0x4E94, symBinAddr: 0x10000EF7C, symSize: 0x88 }
  - { offsetInCU: 0x9325, offset: 0x21263, size: 0x8, addend: 0x0, symName: __ZNSt3__123__libcpp_numeric_limitsIjLb1EE3maxB8ue170006Ev, symObjAddr: 0x4F34, symBinAddr: 0x10000F01C, symSize: 0x8 }
  - { offsetInCU: 0x9338, offset: 0x21276, size: 0x8, addend: 0x0, symName: __ZNSt3__112basic_stringIcNS_11char_traitsIcEENS_9allocatorIcEEEC2INS_17basic_string_viewIcS2_EELi0EEERKT_, symObjAddr: 0x4F3C, symBinAddr: 0x10000F024, symSize: 0x70 }
  - { offsetInCU: 0x939C, offset: 0x212DA, size: 0x8, addend: 0x0, symName: __ZNKSt3__117basic_string_viewIcNS_11char_traitsIcEEE4dataB8ue170006Ev, symObjAddr: 0x4FAC, symBinAddr: 0x10000F094, symSize: 0x18 }
  - { offsetInCU: 0x93C0, offset: 0x212FE, size: 0x8, addend: 0x0, symName: __ZNKSt3__117basic_string_viewIcNS_11char_traitsIcEEE4sizeB8ue170006Ev, symObjAddr: 0x4FC4, symBinAddr: 0x10000F0AC, symSize: 0x18 }
  - { offsetInCU: 0x93E4, offset: 0x21322, size: 0x8, addend: 0x0, symName: __ZNSt3__112basic_stringIcNS_11char_traitsIcEENS_9allocatorIcEEE6appendB8ue170006ERKS5_, symObjAddr: 0x4FDC, symBinAddr: 0x10000F0C4, symSize: 0x4C }
  - { offsetInCU: 0x9417, offset: 0x21355, size: 0x8, addend: 0x0, symName: __ZNKSt3__124uniform_int_distributionImE10param_type1bB8ue170006Ev, symObjAddr: 0x519C, symBinAddr: 0x10000F284, symSize: 0x18 }
  - { offsetInCU: 0x943B, offset: 0x21379, size: 0x8, addend: 0x0, symName: __ZNKSt3__124uniform_int_distributionImE10param_type1aB8ue170006Ev, symObjAddr: 0x51B4, symBinAddr: 0x10000F29C, symSize: 0x18 }
  - { offsetInCU: 0x945F, offset: 0x2139D, size: 0x8, addend: 0x0, symName: __ZNSt3__125__independent_bits_engineINS_26linear_congruential_engineIjLj48271ELj0ELj2147483647EEEmEC1ERS2_m, symObjAddr: 0x51CC, symBinAddr: 0x10000F2B4, symSize: 0x3C }
  - { offsetInCU: 0x94A5, offset: 0x213E3, size: 0x8, addend: 0x0, symName: __ZNSt3__125__independent_bits_engineINS_26linear_congruential_engineIjLj48271ELj0ELj2147483647EEEmEclB8ue170006Ev, symObjAddr: 0x5208, symBinAddr: 0x10000F2F0, symSize: 0x24 }
  - { offsetInCU: 0x94C9, offset: 0x21407, size: 0x8, addend: 0x0, symName: __ZNSt3__125__independent_bits_engineINS_26linear_congruential_engineIjLj48271ELj0ELj2147483647EEEmEC2ERS2_m, symObjAddr: 0x5280, symBinAddr: 0x10000F368, symSize: 0x264 }
  - { offsetInCU: 0x950E, offset: 0x2144C, size: 0x8, addend: 0x0, symName: __ZNSt3__125__independent_bits_engineINS_26linear_congruential_engineIjLj48271ELj0ELj2147483647EEEmE6__evalENS_17integral_constantIbLb1EEE, symObjAddr: 0x54E4, symBinAddr: 0x10000F5CC, symSize: 0x1F0 }
  - { offsetInCU: 0x431B, offset: 0x258A0, size: 0x8, addend: 0x0, symName: __ZNSt3__1rsB8ue170006IcNS_11char_traitsIcEENS_9allocatorIcEEEERNS_13basic_istreamIT_T0_EES9_RNS_12basic_stringIS6_S7_T1_EE, symObjAddr: 0xF38, symBinAddr: 0x10001049C, symSize: 0x308 }
  - { offsetInCU: 0x4A9B, offset: 0x26020, size: 0x8, addend: 0x0, symName: __ZN7Ksiazka8gen_dataEv, symObjAddr: 0x1240, symBinAddr: 0x1000107A4, symSize: 0x830 }
  - { offsetInCU: 0x4AC1, offset: 0x26046, size: 0x8, addend: 0x0, symName: __ZZN7Ksiazka8gen_dataEvE2rd, symObjAddr: 0x28AD0, symBinAddr: 0x10001C908, symSize: 0x0 }
  - { offsetInCU: 0x4AD7, offset: 0x2605C, size: 0x8, addend: 0x0, symName: __ZZN7Ksiazka8gen_dataEvE3dfe, symObjAddr: 0x28AE0, symBinAddr: 0x10001C918, symSize: 0x0 }
  - { offsetInCU: 0x4AED, offset: 0x26072, size: 0x8, addend: 0x0, symName: __ZZN7Ksiazka8gen_dataEvE12numDistTytul, symObjAddr: 0x28AF0, symBinAddr: 0x10001C928, symSize: 0x0 }
  - { offsetInCU: 0x4B03, offset: 0x26088, size: 0x8, addend: 0x0, symName: __ZZN7Ksiazka8gen_dataEvE11numDistImie, symObjAddr: 0x28B00, symBinAddr: 0x10001C938, symSize: 0x0 }
  - { offsetInCU: 0x4B19, offset: 0x2609E, size: 0x8, addend: 0x0, symName: __ZZN7Ksiazka8gen_dataEvE15numDistNazwisko, symObjAddr: 0x28B10, symBinAddr: 0x10001C948, symSize: 0x0 }
  - { offsetInCU: 0x4B2F, offset: 0x260B4, size: 0x8, addend: 0x0, symName: __ZZN7Ksiazka8gen_dataEvE18numDistWydawnictwo, symObjAddr: 0x28B20, symBinAddr: 0x10001C958, symSize: 0x0 }
  - { offsetInCU: 0x4B45, offset: 0x260CA, size: 0x8, addend: 0x0, symName: __ZZN7Ksiazka8gen_dataEvE12numDistDzial, symObjAddr: 0x28B30, symBinAddr: 0x10001C968, symSize: 0x0 }
  - { offsetInCU: 0x4B5B, offset: 0x260E0, size: 0x8, addend: 0x0, symName: __ZZN7Ksiazka8gen_dataEvE14DistRokWydania, symObjAddr: 0x28B40, symBinAddr: 0x10001C978, symSize: 0x0 }
  - { offsetInCU: 0x4B71, offset: 0x260F6, size: 0x8, addend: 0x0, symName: __ZZN7Ksiazka8gen_dataEvE8DistISBN, symObjAddr: 0x28B50, symBinAddr: 0x10001C988, symSize: 0x0 }
  - { offsetInCU: 0x4D7F, offset: 0x26304, size: 0x8, addend: 0x0, symName: __ZNSt3__124uniform_int_distributionIlEclINS_26linear_congruential_engineIjLj48271ELj0ELj2147483647EEEEElRT_RKNS1_10param_typeE, symObjAddr: 0x438C, symBinAddr: 0x1000114F4, symSize: 0x174 }
  - { offsetInCU: 0x6B96, offset: 0x2811B, size: 0x8, addend: 0x0, symName: __ZN7KsiazkaC2Ev, symObjAddr: 0x0, symBinAddr: 0x10000F7D8, symSize: 0x178 }
  - { offsetInCU: 0x6BC1, offset: 0x28146, size: 0x8, addend: 0x0, symName: __ZN7KsiazkaC1Ev, symObjAddr: 0x208, symBinAddr: 0x10000F950, symSize: 0x2C }
  - { offsetInCU: 0x6BEC, offset: 0x28171, size: 0x8, addend: 0x0, symName: __ZN7KsiazkaC2ENSt3__112basic_stringIcNS0_11char_traitsIcEENS0_9allocatorIcEEEES6_S6_S6_jlb, symObjAddr: 0x234, symBinAddr: 0x10000F97C, symSize: 0x164 }
  - { offsetInCU: 0x6C7D, offset: 0x28202, size: 0x8, addend: 0x0, symName: __ZN7KsiazkaC1ENSt3__112basic_stringIcNS0_11char_traitsIcEENS0_9allocatorIcEEEES6_S6_S6_jlb, symObjAddr: 0x398, symBinAddr: 0x10000FAE0, symSize: 0x70 }
  - { offsetInCU: 0x6D0E, offset: 0x28293, size: 0x8, addend: 0x0, symName: __ZN7KsiazkaC2ERKS_, symObjAddr: 0x408, symBinAddr: 0x10000FB50, symSize: 0x154 }
  - { offsetInCU: 0x6D47, offset: 0x282CC, size: 0x8, addend: 0x0, symName: __ZN7KsiazkaC1ERKS_, symObjAddr: 0x55C, symBinAddr: 0x10000FCA4, symSize: 0x34 }
  - { offsetInCU: 0x6D7F, offset: 0x28304, size: 0x8, addend: 0x0, symName: __ZN7KsiazkaaSERKS_, symObjAddr: 0x590, symBinAddr: 0x10000FCD8, symSize: 0xD0 }
  - { offsetInCU: 0x6DB5, offset: 0x2833A, size: 0x8, addend: 0x0, symName: __ZN7KsiazkaC2EOS_, symObjAddr: 0x660, symBinAddr: 0x10000FDA8, symSize: 0xC0 }
  - { offsetInCU: 0x6DEE, offset: 0x28373, size: 0x8, addend: 0x0, symName: __ZN7KsiazkaC1EOS_, symObjAddr: 0x754, symBinAddr: 0x10000FE68, symSize: 0x34 }
  - { offsetInCU: 0x6E26, offset: 0x283AB, size: 0x8, addend: 0x0, symName: __ZN7KsiazkaaSEOS_, symObjAddr: 0x788, symBinAddr: 0x10000FE9C, symSize: 0xD0 }
  - { offsetInCU: 0x6E5B, offset: 0x283E0, size: 0x8, addend: 0x0, symName: __ZlsRNSt3__113basic_ostreamIcNS_11char_traitsIcEEEERK7Ksiazka, symObjAddr: 0x88C, symBinAddr: 0x10000FF6C, symSize: 0x160 }
  - { offsetInCU: 0x6E95, offset: 0x2841A, size: 0x8, addend: 0x0, symName: __ZrsRNSt3__113basic_istreamIcNS_11char_traitsIcEEEER7Ksiazka, symObjAddr: 0xB04, symBinAddr: 0x1000100CC, symSize: 0x110 }
  - { offsetInCU: 0x6ED0, offset: 0x28455, size: 0x8, addend: 0x0, symName: __ZN7KsiazkaD2Ev, symObjAddr: 0xC70, symBinAddr: 0x1000101DC, symSize: 0x6C }
  - { offsetInCU: 0x6EFB, offset: 0x28480, size: 0x8, addend: 0x0, symName: __ZN7KsiazkaD1Ev, symObjAddr: 0xCDC, symBinAddr: 0x100010248, symSize: 0x2C }
  - { offsetInCU: 0x6F26, offset: 0x284AB, size: 0x8, addend: 0x0, symName: __ZN7KsiazkaD0Ev, symObjAddr: 0xD08, symBinAddr: 0x100010274, symSize: 0x30 }
  - { offsetInCU: 0x6F50, offset: 0x284D5, size: 0x8, addend: 0x0, symName: __ZNK7Ksiazka8wyswietlEv, symObjAddr: 0xD38, symBinAddr: 0x1000102A4, symSize: 0x40 }
  - { offsetInCU: 0x6F77, offset: 0x284FC, size: 0x8, addend: 0x0, symName: __ZN7Ksiazka6edytujEv, symObjAddr: 0xD78, symBinAddr: 0x1000102E4, symSize: 0x19C }
  - { offsetInCU: 0x6FAE, offset: 0x28533, size: 0x8, addend: 0x0, symName: __ZNSt3__124uniform_int_distributionIlEC1B8ue170006Ell, symObjAddr: 0x1B54, symBinAddr: 0x100010FD4, symSize: 0x3C }
  - { offsetInCU: 0x6FF7, offset: 0x2857C, size: 0x8, addend: 0x0, symName: __ZNSt3__112basic_stringIcNS_11char_traitsIcEENS_9allocatorIcEEEaSINS_17basic_string_viewIcS2_EELi0EEERS5_RKT_, symObjAddr: 0x1C74, symBinAddr: 0x100011010, symSize: 0x38 }
  - { offsetInCU: 0x7048, offset: 0x285CD, size: 0x8, addend: 0x0, symName: __ZNSt3__124uniform_int_distributionIlEclB8ue170006INS_26linear_congruential_engineIjLj48271ELj0ELj2147483647EEEEElRT_, symObjAddr: 0x1CAC, symBinAddr: 0x100011048, symSize: 0x30 }
  - { offsetInCU: 0x7082, offset: 0x28607, size: 0x8, addend: 0x0, symName: __ZNK7Ksiazka9get_tytulEv, symObjAddr: 0x1CDC, symBinAddr: 0x100011078, symSize: 0x3C }
  - { offsetInCU: 0x70A9, offset: 0x2862E, size: 0x8, addend: 0x0, symName: __ZNK7Ksiazka9get_autorEv, symObjAddr: 0x1D18, symBinAddr: 0x1000110B4, symSize: 0x3C }
  - { offsetInCU: 0x70D0, offset: 0x28655, size: 0x8, addend: 0x0, symName: __ZNK7Ksiazka15get_wydawnictwoEv, symObjAddr: 0x1D54, symBinAddr: 0x1000110F0, symSize: 0x3C }
  - { offsetInCU: 0x70F7, offset: 0x2867C, size: 0x8, addend: 0x0, symName: __ZNK7Ksiazka11get_gatunekEv, symObjAddr: 0x1D90, symBinAddr: 0x10001112C, symSize: 0x3C }
  - { offsetInCU: 0x711F, offset: 0x286A4, size: 0x8, addend: 0x0, symName: __ZNK7Ksiazka15get_rok_wydaniaEv, symObjAddr: 0x1DCC, symBinAddr: 0x100011168, symSize: 0x18 }
  - { offsetInCU: 0x7146, offset: 0x286CB, size: 0x8, addend: 0x0, symName: __ZNK7Ksiazka8get_ISBNEv, symObjAddr: 0x1DE4, symBinAddr: 0x100011180, symSize: 0x18 }
  - { offsetInCU: 0x716D, offset: 0x286F2, size: 0x8, addend: 0x0, symName: __ZNK7Ksiazka15get_wypozyczonaEv, symObjAddr: 0x1DFC, symBinAddr: 0x100011198, symSize: 0x1C }
  - { offsetInCU: 0x7193, offset: 0x28718, size: 0x8, addend: 0x0, symName: __ZN7Ksiazka9set_tytulENSt3__112basic_stringIcNS0_11char_traitsIcEENS0_9allocatorIcEEEE, symObjAddr: 0x1E18, symBinAddr: 0x1000111B4, symSize: 0x30 }
  - { offsetInCU: 0x71C9, offset: 0x2874E, size: 0x8, addend: 0x0, symName: __ZN7Ksiazka9set_autorENSt3__112basic_stringIcNS0_11char_traitsIcEENS0_9allocatorIcEEEE, symObjAddr: 0x1E48, symBinAddr: 0x1000111E4, symSize: 0x30 }
  - { offsetInCU: 0x71FF, offset: 0x28784, size: 0x8, addend: 0x0, symName: __ZN7Ksiazka15set_wydawnictwoENSt3__112basic_stringIcNS0_11char_traitsIcEENS0_9allocatorIcEEEE, symObjAddr: 0x1E78, symBinAddr: 0x100011214, symSize: 0x30 }
  - { offsetInCU: 0x7235, offset: 0x287BA, size: 0x8, addend: 0x0, symName: __ZN7Ksiazka11set_gatunekENSt3__112basic_stringIcNS0_11char_traitsIcEENS0_9allocatorIcEEEE, symObjAddr: 0x1EA8, symBinAddr: 0x100011244, symSize: 0x30 }
  - { offsetInCU: 0x726C, offset: 0x287F1, size: 0x8, addend: 0x0, symName: __ZN7Ksiazka15set_rok_wydaniaEj, symObjAddr: 0x1ED8, symBinAddr: 0x100011274, symSize: 0x20 }
  - { offsetInCU: 0x72A1, offset: 0x28826, size: 0x8, addend: 0x0, symName: __ZN7Ksiazka8set_ISBNEl, symObjAddr: 0x1EF8, symBinAddr: 0x100011294, symSize: 0x20 }
  - { offsetInCU: 0x72D6, offset: 0x2885B, size: 0x8, addend: 0x0, symName: __ZN7Ksiazka15set_wypozyczonaEb, symObjAddr: 0x1F18, symBinAddr: 0x1000112B4, symSize: 0x2C }
  - { offsetInCU: 0x73C0, offset: 0x28945, size: 0x8, addend: 0x0, symName: __ZNSt3__115basic_streambufIcNS_11char_traitsIcEEE5sgetcB8ue170006Ev, symObjAddr: 0x3750, symBinAddr: 0x1000112E0, symSize: 0x70 }
  - { offsetInCU: 0x73E4, offset: 0x28969, size: 0x8, addend: 0x0, symName: __ZNKSt3__15ctypeIcE2isB8ue170006Ejc, symObjAddr: 0x37C0, symBinAddr: 0x100011350, symSize: 0x7C }
  - { offsetInCU: 0x7425, offset: 0x289AA, size: 0x8, addend: 0x0, symName: __Z7isasciii, symObjAddr: 0x3844, symBinAddr: 0x1000113CC, symSize: 0x24 }
  - { offsetInCU: 0x7452, offset: 0x289D7, size: 0x8, addend: 0x0, symName: __ZNSt3__124uniform_int_distributionIlEC2B8ue170006Ell, symObjAddr: 0x39E0, symBinAddr: 0x1000113F0, symSize: 0x3C }
  - { offsetInCU: 0x7496, offset: 0x28A1B, size: 0x8, addend: 0x0, symName: __ZNSt3__124uniform_int_distributionIlE10param_typeC1B8ue170006Ell, symObjAddr: 0x3A1C, symBinAddr: 0x10001142C, symSize: 0x3C }
  - { offsetInCU: 0x74DA, offset: 0x28A5F, size: 0x8, addend: 0x0, symName: __ZNSt3__124uniform_int_distributionIlE10param_typeC2B8ue170006Ell, symObjAddr: 0x3A58, symBinAddr: 0x100011468, symSize: 0x2C }
  - { offsetInCU: 0x751E, offset: 0x28AA3, size: 0x8, addend: 0x0, symName: __ZNSt3__112basic_stringIcNS_11char_traitsIcEENS_9allocatorIcEEE6assignINS_17basic_string_viewIcS2_EELi0EEERS5_RKT_, symObjAddr: 0x432C, symBinAddr: 0x100011494, symSize: 0x60 }
  - { offsetInCU: 0x756F, offset: 0x28AF4, size: 0x8, addend: 0x0, symName: __ZNKSt3__124uniform_int_distributionIlE10param_type1bB8ue170006Ev, symObjAddr: 0x4500, symBinAddr: 0x100011668, symSize: 0x18 }
  - { offsetInCU: 0x7593, offset: 0x28B18, size: 0x8, addend: 0x0, symName: __ZNKSt3__124uniform_int_distributionIlE10param_type1aB8ue170006Ev, symObjAddr: 0x4518, symBinAddr: 0x100011680, symSize: 0x18 }
  - { offsetInCU: 0x39, offset: 0x28BB0, size: 0x8, addend: 0x0, symName: __ZN18RejestratorZdarzen18rejestratorZdarzenE, symObjAddr: 0x32278, symBinAddr: 0x10001C878, symSize: 0x0 }
  - { offsetInCU: 0x4A77, offset: 0x2D5EE, size: 0x8, addend: 0x0, symName: __ZNSt3__1neB8ue170006IPKNS_12basic_stringIcNS_11char_traitsIcEENS_9allocatorIcEEEEEEbRKNS_11__wrap_iterIT_EESD_, symObjAddr: 0x3FC, symBinAddr: 0x100011A94, symSize: 0x34 }
  - { offsetInCU: 0x4ABA, offset: 0x2D631, size: 0x8, addend: 0x0, symName: __ZNSt3__1eqB8ue170006IPKNS_12basic_stringIcNS_11char_traitsIcEENS_9allocatorIcEEEEEEbRKNS_11__wrap_iterIT_EESD_, symObjAddr: 0x610, symBinAddr: 0x100011BD8, symSize: 0x48 }
  - { offsetInCU: 0x4AFD, offset: 0x2D674, size: 0x8, addend: 0x0, symName: __ZNSt3__112__to_addressB8ue170006INS_12basic_stringIcNS_11char_traitsIcEENS_9allocatorIcEEEEEEPT_S8_, symObjAddr: 0xA4C, symBinAddr: 0x100012008, symSize: 0x14 }
  - { offsetInCU: 0x4B32, offset: 0x2D6A9, size: 0x8, addend: 0x0, symName: __ZNSt3__1miB8ue170006IPKNS_12basic_stringIcNS_11char_traitsIcEENS_9allocatorIcEEEES8_EEDTmicldtfp_4baseEcldtfp0_4baseEERKNS_11__wrap_iterIT_EERKNSA_IT0_EE, symObjAddr: 0xEA8, symBinAddr: 0x10001233C, symSize: 0x48 }
  - { offsetInCU: 0x4B7E, offset: 0x2D6F5, size: 0x8, addend: 0x0, symName: __ZNSt3__14moveB8ue170006IPNS_12basic_stringIcNS_11char_traitsIcEENS_9allocatorIcEEEES7_EET0_T_S9_S8_, symObjAddr: 0xF68, symBinAddr: 0x1000123FC, symSize: 0x40 }
  - { offsetInCU: 0x4BD8, offset: 0x2D74F, size: 0x8, addend: 0x0, symName: __ZNSt3__16__moveB8ue170006INS_17_ClassicAlgPolicyEPNS_12basic_stringIcNS_11char_traitsIcEENS_9allocatorIcEEEES8_S8_EENS_4pairIT0_T2_EESA_T1_SB_, symObjAddr: 0x1078, symBinAddr: 0x10001250C, symSize: 0x44 }
  - { offsetInCU: 0x4C44, offset: 0x2D7BB, size: 0x8, addend: 0x0, symName: __ZNSt3__123__dispatch_copy_or_moveB8ue170006INS_17_ClassicAlgPolicyENS_11__move_loopIS1_EENS_14__move_trivialEPNS_12basic_stringIcNS_11char_traitsIcEENS_9allocatorIcEEEESB_SB_EENS_4pairIT2_T4_EESD_T3_SE_, symObjAddr: 0x10BC, symBinAddr: 0x100012550, symSize: 0x44 }
  - { offsetInCU: 0x4CC2, offset: 0x2D839, size: 0x8, addend: 0x0, symName: __ZNSt3__121__unwrap_and_dispatchB8ue170006INS_10__overloadINS_11__move_loopINS_17_ClassicAlgPolicyEEENS_14__move_trivialEEEPNS_12basic_stringIcNS_11char_traitsIcEENS_9allocatorIcEEEESD_SD_Li0EEENS_4pairIT0_T2_EESF_T1_SG_, symObjAddr: 0x1100, symBinAddr: 0x100012594, symSize: 0xB4 }
  - { offsetInCU: 0x4D52, offset: 0x2D8C9, size: 0x8, addend: 0x0, symName: __ZNSt3__114__unwrap_rangeB8ue170006IPNS_12basic_stringIcNS_11char_traitsIcEENS_9allocatorIcEEEES7_EENS_4pairIT0_S9_EET_SB_, symObjAddr: 0x11B4, symBinAddr: 0x100012648, symSize: 0x60 }
  - { offsetInCU: 0x4EC5, offset: 0x2DA3C, size: 0x8, addend: 0x0, symName: __ZNSt3__113__unwrap_iterB8ue170006IPNS_12basic_stringIcNS_11char_traitsIcEENS_9allocatorIcEEEENS_18__unwrap_iter_implIS7_Lb1EEELi0EEEDTclsrT0_8__unwrapclsr3stdE7declvalIT_EEEESB_, symObjAddr: 0x12A4, symBinAddr: 0x100012738, symSize: 0x24 }
  - { offsetInCU: 0x4F09, offset: 0x2DA80, size: 0x8, addend: 0x0, symName: __ZNSt3__19make_pairB8ue170006IPNS_12basic_stringIcNS_11char_traitsIcEENS_9allocatorIcEEEES7_EENS_4pairINS_18__unwrap_ref_decayIT_E4typeENS9_IT0_E4typeEEEOSA_OSD_, symObjAddr: 0x12C8, symBinAddr: 0x10001275C, symSize: 0x38 }
  - { offsetInCU: 0x4F58, offset: 0x2DACF, size: 0x8, addend: 0x0, symName: __ZNSt3__114__rewrap_rangeB8ue170006IPNS_12basic_stringIcNS_11char_traitsIcEENS_9allocatorIcEEEES7_EET_S8_T0_, symObjAddr: 0x1300, symBinAddr: 0x100012794, symSize: 0x2C }
  - { offsetInCU: 0x4FA4, offset: 0x2DB1B, size: 0x8, addend: 0x0, symName: __ZNSt3__113__rewrap_iterB8ue170006IPNS_12basic_stringIcNS_11char_traitsIcEENS_9allocatorIcEEEES7_NS_18__unwrap_iter_implIS7_Lb1EEEEET_SA_T0_, symObjAddr: 0x132C, symBinAddr: 0x1000127C0, symSize: 0x3C }
  - { offsetInCU: 0x50B8, offset: 0x2DC2F, size: 0x8, addend: 0x0, symName: __ZNSt3__119__allocate_at_leastB8ue170006INS_9allocatorINS_12basic_stringIcNS_11char_traitsIcEENS1_IcEEEEEEEENS_19__allocation_resultINS_16allocator_traitsIT_E7pointerEEERSA_m, symObjAddr: 0x2224, symBinAddr: 0x10001307C, symSize: 0x40 }
  - { offsetInCU: 0x50FB, offset: 0x2DC72, size: 0x8, addend: 0x0, symName: __ZNSt3__142__uninitialized_allocator_move_if_noexceptB8ue170006INS_9allocatorINS_12basic_stringIcNS_11char_traitsIcEENS1_IcEEEEEENS_16reverse_iteratorIPS6_EESA_SA_EET2_RT_T0_T1_SB_, symObjAddr: 0x24C0, symBinAddr: 0x100013234, symSize: 0x12C }
  - { offsetInCU: 0x519B, offset: 0x2DD12, size: 0x8, addend: 0x0, symName: __ZNSt3__14swapB8ue170006IPNS_12basic_stringIcNS_11char_traitsIcEENS_9allocatorIcEEEEEENS_9enable_ifIXaasr21is_move_constructibleIT_EE5valuesr18is_move_assignableIS9_EE5valueEvE4typeERS9_SC_, symObjAddr: 0x2638, symBinAddr: 0x1000133AC, symSize: 0x3C }
  - { offsetInCU: 0x51ED, offset: 0x2DD64, size: 0x8, addend: 0x0, symName: __ZNSt3__122__make_exception_guardB8ue170006INS_29_AllocatorDestroyRangeReverseINS_9allocatorINS_12basic_stringIcNS_11char_traitsIcEENS2_IcEEEEEENS_16reverse_iteratorIPS7_EEEEEENS_28__exception_guard_exceptionsIT_EESE_, symObjAddr: 0x273C, symBinAddr: 0x1000134B0, symSize: 0x4C }
  - { offsetInCU: 0x5223, offset: 0x2DD9A, size: 0x8, addend: 0x0, symName: __ZNSt3__1neB8ue170006IPNS_12basic_stringIcNS_11char_traitsIcEENS_9allocatorIcEEEES7_EEbRKNS_16reverse_iteratorIT_EERKNS8_IT0_EE, symObjAddr: 0x27CC, symBinAddr: 0x100013540, symSize: 0x48 }
  - { offsetInCU: 0x526F, offset: 0x2DDE6, size: 0x8, addend: 0x0, symName: __ZNSt3__112__to_addressB8ue170006INS_16reverse_iteratorIPNS_12basic_stringIcNS_11char_traitsIcEENS_9allocatorIcEEEEEEvEEu7__decayIDTclsr19__to_address_helperIT_EE6__callclsr3stdE7declvalIRKSA_EEEEESC_, symObjAddr: 0x2848, symBinAddr: 0x1000135BC, symSize: 0x24 }
  - { offsetInCU: 0x52D0, offset: 0x2DE47, size: 0x8, addend: 0x0, symName: __ZNSt3__119__allocator_destroyB8ue170006INS_9allocatorINS_12basic_stringIcNS_11char_traitsIcEENS1_IcEEEEEENS_16reverse_iteratorINS8_IPS6_EEEESB_EEvRT_T0_T1_, symObjAddr: 0x2BEC, symBinAddr: 0x10001389C, symSize: 0x70 }
  - { offsetInCU: 0x5336, offset: 0x2DEAD, size: 0x8, addend: 0x0, symName: __ZNSt3__1neB8ue170006INS_16reverse_iteratorIPNS_12basic_stringIcNS_11char_traitsIcEENS_9allocatorIcEEEEEES9_EEbRKNS1_IT_EERKNS1_IT0_EE, symObjAddr: 0x2C98, symBinAddr: 0x100013948, symSize: 0x60 }
  - { offsetInCU: 0x5382, offset: 0x2DEF9, size: 0x8, addend: 0x0, symName: __ZNSt3__112__to_addressB8ue170006INS_16reverse_iteratorINS1_IPNS_12basic_stringIcNS_11char_traitsIcEENS_9allocatorIcEEEEEEEEvEEu7__decayIDTclsr19__to_address_helperIT_EE6__callclsr3stdE7declvalIRKSB_EEEEESD_, symObjAddr: 0x2CF8, symBinAddr: 0x1000139A8, symSize: 0x24 }
  - { offsetInCU: 0x56E0, offset: 0x2E257, size: 0x8, addend: 0x0, symName: __ZNSt3__16vectorINS_12basic_stringIcNS_11char_traitsIcEENS_9allocatorIcEEEENS4_IS6_EEE26__swap_out_circular_bufferERNS_14__split_bufferIS6_RS7_EE, symObjAddr: 0x1C80, symBinAddr: 0x100012D0C, symSize: 0x110 }
  - { offsetInCU: 0x7511, offset: 0x30088, size: 0x8, addend: 0x0, symName: __ZN18RejestratorZdarzenC2Em, symObjAddr: 0x0, symBinAddr: 0x100011698, symSize: 0x38 }
  - { offsetInCU: 0x754A, offset: 0x300C1, size: 0x8, addend: 0x0, symName: __ZNSt3__16vectorINS_12basic_stringIcNS_11char_traitsIcEENS_9allocatorIcEEEENS4_IS6_EEEC1B8ue170006Ev, symObjAddr: 0x38, symBinAddr: 0x1000116D0, symSize: 0x2C }
  - { offsetInCU: 0x7572, offset: 0x300E9, size: 0x8, addend: 0x0, symName: __ZN18RejestratorZdarzenC1Em, symObjAddr: 0x64, symBinAddr: 0x1000116FC, symSize: 0x34 }
  - { offsetInCU: 0x75AB, offset: 0x30122, size: 0x8, addend: 0x0, symName: __ZN18RejestratorZdarzen22get_rejestratorZdarzenEv, symObjAddr: 0x98, symBinAddr: 0x100011730, symSize: 0x5C }
  - { offsetInCU: 0x75C1, offset: 0x30138, size: 0x8, addend: 0x0, symName: __ZN18RejestratorZdarzen14dodajZdarzenieERKNSt3__112basic_stringIcNS0_11char_traitsIcEENS0_9allocatorIcEEEE, symObjAddr: 0xF4, symBinAddr: 0x10001178C, symSize: 0x80 }
  - { offsetInCU: 0x75F6, offset: 0x3016D, size: 0x8, addend: 0x0, symName: __ZNKSt3__16vectorINS_12basic_stringIcNS_11char_traitsIcEENS_9allocatorIcEEEENS4_IS6_EEE4sizeB8ue170006Ev, symObjAddr: 0x174, symBinAddr: 0x10001180C, symSize: 0x28 }
  - { offsetInCU: 0x7619, offset: 0x30190, size: 0x8, addend: 0x0, symName: __ZNSt3__16vectorINS_12basic_stringIcNS_11char_traitsIcEENS_9allocatorIcEEEENS4_IS6_EEE5eraseB8ue170006ENS_11__wrap_iterIPKS6_EE, symObjAddr: 0x19C, symBinAddr: 0x100011834, symSize: 0x9C }
  - { offsetInCU: 0x766C, offset: 0x301E3, size: 0x8, addend: 0x0, symName: __ZNSt3__16vectorINS_12basic_stringIcNS_11char_traitsIcEENS_9allocatorIcEEEENS4_IS6_EEE5beginB8ue170006Ev, symObjAddr: 0x238, symBinAddr: 0x1000118D0, symSize: 0x30 }
  - { offsetInCU: 0x769D, offset: 0x30214, size: 0x8, addend: 0x0, symName: __ZNSt3__111__wrap_iterIPKNS_12basic_stringIcNS_11char_traitsIcEENS_9allocatorIcEEEEEC1B8ue170006IPS6_EERKNS0_IT_EEPNS_9enable_ifIXsr14is_convertibleISC_S8_EE5valueEvE4typeE, symObjAddr: 0x268, symBinAddr: 0x100011900, symSize: 0x3C }
  - { offsetInCU: 0x76E5, offset: 0x3025C, size: 0x8, addend: 0x0, symName: __ZNSt3__16vectorINS_12basic_stringIcNS_11char_traitsIcEENS_9allocatorIcEEEENS4_IS6_EEE9push_backB8ue170006ERKS6_, symObjAddr: 0x2A4, symBinAddr: 0x10001193C, symSize: 0x6C }
  - { offsetInCU: 0x771B, offset: 0x30292, size: 0x8, addend: 0x0, symName: __ZNK18RejestratorZdarzen17wyswietlZdarzeniaEv, symObjAddr: 0x310, symBinAddr: 0x1000119A8, symSize: 0x8C }
  - { offsetInCU: 0x7795, offset: 0x3030C, size: 0x8, addend: 0x0, symName: __ZNKSt3__16vectorINS_12basic_stringIcNS_11char_traitsIcEENS_9allocatorIcEEEENS4_IS6_EEE5beginB8ue170006Ev, symObjAddr: 0x39C, symBinAddr: 0x100011A34, symSize: 0x30 }
  - { offsetInCU: 0x77BB, offset: 0x30332, size: 0x8, addend: 0x0, symName: __ZNKSt3__16vectorINS_12basic_stringIcNS_11char_traitsIcEENS_9allocatorIcEEEENS4_IS6_EEE3endB8ue170006Ev, symObjAddr: 0x3CC, symBinAddr: 0x100011A64, symSize: 0x30 }
  - { offsetInCU: 0x77E2, offset: 0x30359, size: 0x8, addend: 0x0, symName: __ZNKSt3__111__wrap_iterIPKNS_12basic_stringIcNS_11char_traitsIcEENS_9allocatorIcEEEEEdeB8ue170006Ev, symObjAddr: 0x430, symBinAddr: 0x100011AC8, symSize: 0x18 }
  - { offsetInCU: 0x7806, offset: 0x3037D, size: 0x8, addend: 0x0, symName: __ZNSt3__111__wrap_iterIPKNS_12basic_stringIcNS_11char_traitsIcEENS_9allocatorIcEEEEEppB8ue170006Ev, symObjAddr: 0x518, symBinAddr: 0x100011AE0, symSize: 0x20 }
  - { offsetInCU: 0x782A, offset: 0x303A1, size: 0x8, addend: 0x0, symName: __ZN18RejestratorZdarzen22usunRejestratorZdarzenEv, symObjAddr: 0x538, symBinAddr: 0x100011B00, symSize: 0x54 }
  - { offsetInCU: 0x7851, offset: 0x303C8, size: 0x8, addend: 0x0, symName: __ZN18RejestratorZdarzenD1Ev, symObjAddr: 0x58C, symBinAddr: 0x100011B54, symSize: 0x2C }
  - { offsetInCU: 0x787C, offset: 0x303F3, size: 0x8, addend: 0x0, symName: __ZNSt3__111__wrap_iterIPKNS_12basic_stringIcNS_11char_traitsIcEENS_9allocatorIcEEEEEC2B8ue170006IPS6_EERKNS0_IT_EEPNS_9enable_ifIXsr14is_convertibleISC_S8_EE5valueEvE4typeE, symObjAddr: 0x5B8, symBinAddr: 0x100011B80, symSize: 0x40 }
  - { offsetInCU: 0x78C5, offset: 0x3043C, size: 0x8, addend: 0x0, symName: __ZNKSt3__111__wrap_iterIPNS_12basic_stringIcNS_11char_traitsIcEENS_9allocatorIcEEEEE4baseB8ue170006Ev, symObjAddr: 0x5F8, symBinAddr: 0x100011BC0, symSize: 0x18 }
  - { offsetInCU: 0x78E9, offset: 0x30460, size: 0x8, addend: 0x0, symName: __ZNKSt3__111__wrap_iterIPKNS_12basic_stringIcNS_11char_traitsIcEENS_9allocatorIcEEEEE4baseB8ue170006Ev, symObjAddr: 0x658, symBinAddr: 0x100011C20, symSize: 0x18 }
  - { offsetInCU: 0x790D, offset: 0x30484, size: 0x8, addend: 0x0, symName: __ZN18RejestratorZdarzenD2Ev, symObjAddr: 0x670, symBinAddr: 0x100011C38, symSize: 0x2C }
  - { offsetInCU: 0x7938, offset: 0x304AF, size: 0x8, addend: 0x0, symName: __ZNSt3__16vectorINS_12basic_stringIcNS_11char_traitsIcEENS_9allocatorIcEEEENS4_IS6_EEED1B8ue170006Ev, symObjAddr: 0x69C, symBinAddr: 0x100011C64, symSize: 0x2C }
  - { offsetInCU: 0x7960, offset: 0x304D7, size: 0x8, addend: 0x0, symName: __ZNSt3__16vectorINS_12basic_stringIcNS_11char_traitsIcEENS_9allocatorIcEEEENS4_IS6_EEED2B8ue170006Ev, symObjAddr: 0x6C8, symBinAddr: 0x100011C90, symSize: 0x44 }
  - { offsetInCU: 0x7988, offset: 0x304FF, size: 0x8, addend: 0x0, symName: __ZNSt3__16vectorINS_12basic_stringIcNS_11char_traitsIcEENS_9allocatorIcEEEENS4_IS6_EEE16__destroy_vectorC1B8ue170006ERS8_, symObjAddr: 0x70C, symBinAddr: 0x100011CD4, symSize: 0x34 }
  - { offsetInCU: 0x79BF, offset: 0x30536, size: 0x8, addend: 0x0, symName: __ZNSt3__16vectorINS_12basic_stringIcNS_11char_traitsIcEENS_9allocatorIcEEEENS4_IS6_EEE16__destroy_vectorclB8ue170006Ev, symObjAddr: 0x74C, symBinAddr: 0x100011D08, symSize: 0x90 }
  - { offsetInCU: 0x79E3, offset: 0x3055A, size: 0x8, addend: 0x0, symName: __ZNSt3__16vectorINS_12basic_stringIcNS_11char_traitsIcEENS_9allocatorIcEEEENS4_IS6_EEE16__destroy_vectorC2B8ue170006ERS8_, symObjAddr: 0x7DC, symBinAddr: 0x100011D98, symSize: 0x20 }
  - { offsetInCU: 0x7A1A, offset: 0x30591, size: 0x8, addend: 0x0, symName: __ZNSt3__16vectorINS_12basic_stringIcNS_11char_traitsIcEENS_9allocatorIcEEEENS4_IS6_EEE7__clearB8ue170006Ev, symObjAddr: 0x7FC, symBinAddr: 0x100011DB8, symSize: 0x28 }
  - { offsetInCU: 0x7A3E, offset: 0x305B5, size: 0x8, addend: 0x0, symName: __ZNKSt3__16vectorINS_12basic_stringIcNS_11char_traitsIcEENS_9allocatorIcEEEENS4_IS6_EEE17__annotate_deleteB8ue170006Ev, symObjAddr: 0x824, symBinAddr: 0x100011DE0, symSize: 0xD4 }
  - { offsetInCU: 0x7A62, offset: 0x305D9, size: 0x8, addend: 0x0, symName: __ZNSt3__116allocator_traitsINS_9allocatorINS_12basic_stringIcNS_11char_traitsIcEENS1_IcEEEEEEE10deallocateB8ue170006ERS7_PS6_m, symObjAddr: 0x8F8, symBinAddr: 0x100011EB4, symSize: 0x34 }
  - { offsetInCU: 0x7AA3, offset: 0x3061A, size: 0x8, addend: 0x0, symName: __ZNSt3__16vectorINS_12basic_stringIcNS_11char_traitsIcEENS_9allocatorIcEEEENS4_IS6_EEE7__allocB8ue170006Ev, symObjAddr: 0x92C, symBinAddr: 0x100011EE8, symSize: 0x28 }
  - { offsetInCU: 0x7AC7, offset: 0x3063E, size: 0x8, addend: 0x0, symName: __ZNKSt3__16vectorINS_12basic_stringIcNS_11char_traitsIcEENS_9allocatorIcEEEENS4_IS6_EEE8capacityB8ue170006Ev, symObjAddr: 0x954, symBinAddr: 0x100011F10, symSize: 0x40 }
  - { offsetInCU: 0x7AEB, offset: 0x30662, size: 0x8, addend: 0x0, symName: __ZNSt3__16vectorINS_12basic_stringIcNS_11char_traitsIcEENS_9allocatorIcEEEENS4_IS6_EEE22__base_destruct_at_endB8ue170006EPS6_, symObjAddr: 0x994, symBinAddr: 0x100011F50, symSize: 0x8C }
  - { offsetInCU: 0x7B2D, offset: 0x306A4, size: 0x8, addend: 0x0, symName: __ZNSt3__116allocator_traitsINS_9allocatorINS_12basic_stringIcNS_11char_traitsIcEENS1_IcEEEEEEE7destroyB8ue170006IS6_vEEvRS7_PT_, symObjAddr: 0xA20, symBinAddr: 0x100011FDC, symSize: 0x2C }
  - { offsetInCU: 0x7B6A, offset: 0x306E1, size: 0x8, addend: 0x0, symName: __ZNSt3__19allocatorINS_12basic_stringIcNS_11char_traitsIcEENS0_IcEEEEE7destroyB8ue170006EPS5_, symObjAddr: 0xA60, symBinAddr: 0x10001201C, symSize: 0x28 }
  - { offsetInCU: 0x7B9C, offset: 0x30713, size: 0x8, addend: 0x0, symName: __ZNKSt3__16vectorINS_12basic_stringIcNS_11char_traitsIcEENS_9allocatorIcEEEENS4_IS6_EEE31__annotate_contiguous_containerB8ue170006EPKvSA_SA_SA_, symObjAddr: 0xA88, symBinAddr: 0x100012044, symSize: 0x20 }
  - { offsetInCU: 0x7BF0, offset: 0x30767, size: 0x8, addend: 0x0, symName: __ZNKSt3__16vectorINS_12basic_stringIcNS_11char_traitsIcEENS_9allocatorIcEEEENS4_IS6_EEE4dataB8ue170006Ev, symObjAddr: 0xAA8, symBinAddr: 0x100012064, symSize: 0x28 }
  - { offsetInCU: 0x7C14, offset: 0x3078B, size: 0x8, addend: 0x0, symName: __ZNSt3__19allocatorINS_12basic_stringIcNS_11char_traitsIcEENS0_IcEEEEE10deallocateB8ue170006EPS5_m, symObjAddr: 0xAD0, symBinAddr: 0x10001208C, symSize: 0x44 }
  - { offsetInCU: 0x7C54, offset: 0x307CB, size: 0x8, addend: 0x0, symName: __ZNSt3__117__compressed_pairIPNS_12basic_stringIcNS_11char_traitsIcEENS_9allocatorIcEEEENS4_IS6_EEE6secondB8ue170006Ev, symObjAddr: 0xC3C, symBinAddr: 0x1000120D0, symSize: 0x24 }
  - { offsetInCU: 0x7C78, offset: 0x307EF, size: 0x8, addend: 0x0, symName: __ZNSt3__122__compressed_pair_elemINS_9allocatorINS_12basic_stringIcNS_11char_traitsIcEENS1_IcEEEEEELi1ELb1EE5__getB8ue170006Ev, symObjAddr: 0xC60, symBinAddr: 0x1000120F4, symSize: 0x14 }
  - { offsetInCU: 0x7C9C, offset: 0x30813, size: 0x8, addend: 0x0, symName: __ZNKSt3__16vectorINS_12basic_stringIcNS_11char_traitsIcEENS_9allocatorIcEEEENS4_IS6_EEE9__end_capB8ue170006Ev, symObjAddr: 0xC74, symBinAddr: 0x100012108, symSize: 0x28 }
  - { offsetInCU: 0x7CC0, offset: 0x30837, size: 0x8, addend: 0x0, symName: __ZNKSt3__117__compressed_pairIPNS_12basic_stringIcNS_11char_traitsIcEENS_9allocatorIcEEEENS4_IS6_EEE5firstB8ue170006Ev, symObjAddr: 0xC9C, symBinAddr: 0x100012130, symSize: 0x24 }
  - { offsetInCU: 0x7CE4, offset: 0x3085B, size: 0x8, addend: 0x0, symName: __ZNKSt3__122__compressed_pair_elemIPNS_12basic_stringIcNS_11char_traitsIcEENS_9allocatorIcEEEELi0ELb0EE5__getB8ue170006Ev, symObjAddr: 0xCC0, symBinAddr: 0x100012154, symSize: 0x14 }
  - { offsetInCU: 0x7D08, offset: 0x3087F, size: 0x8, addend: 0x0, symName: __ZNSt3__16vectorINS_12basic_stringIcNS_11char_traitsIcEENS_9allocatorIcEEEENS4_IS6_EEEC2B8ue170006Ev, symObjAddr: 0xCD4, symBinAddr: 0x100012168, symSize: 0x4C }
  - { offsetInCU: 0x7D3A, offset: 0x308B1, size: 0x8, addend: 0x0, symName: __ZNSt3__117__compressed_pairIPNS_12basic_stringIcNS_11char_traitsIcEENS_9allocatorIcEEEENS4_IS6_EEEC1B8ue170006IDnNS_18__default_init_tagEEEOT_OT0_, symObjAddr: 0xD20, symBinAddr: 0x1000121B4, symSize: 0x3C }
  - { offsetInCU: 0x7D90, offset: 0x30907, size: 0x8, addend: 0x0, symName: __ZNSt3__117__compressed_pairIPNS_12basic_stringIcNS_11char_traitsIcEENS_9allocatorIcEEEENS4_IS6_EEEC2B8ue170006IDnNS_18__default_init_tagEEEOT_OT0_, symObjAddr: 0xD5C, symBinAddr: 0x1000121F0, symSize: 0x40 }
  - { offsetInCU: 0x7DE6, offset: 0x3095D, size: 0x8, addend: 0x0, symName: __ZNSt3__122__compressed_pair_elemIPNS_12basic_stringIcNS_11char_traitsIcEENS_9allocatorIcEEEELi0ELb0EEC2B8ue170006IDnvEEOT_, symObjAddr: 0xD9C, symBinAddr: 0x100012230, symSize: 0x1C }
  - { offsetInCU: 0x7E27, offset: 0x3099E, size: 0x8, addend: 0x0, symName: __ZNSt3__122__compressed_pair_elemINS_9allocatorINS_12basic_stringIcNS_11char_traitsIcEENS1_IcEEEEEELi1ELb1EEC2B8ue170006ENS_18__default_init_tagE, symObjAddr: 0xDB8, symBinAddr: 0x10001224C, symSize: 0x2C }
  - { offsetInCU: 0x7E59, offset: 0x309D0, size: 0x8, addend: 0x0, symName: __ZNSt3__19allocatorINS_12basic_stringIcNS_11char_traitsIcEENS0_IcEEEEEC2B8ue170006Ev, symObjAddr: 0xDE4, symBinAddr: 0x100012278, symSize: 0x2C }
  - { offsetInCU: 0x7E81, offset: 0x309F8, size: 0x8, addend: 0x0, symName: __ZNSt3__116__non_trivial_ifILb1ENS_9allocatorINS_12basic_stringIcNS_11char_traitsIcEENS1_IcEEEEEEEC2B8ue170006Ev, symObjAddr: 0xE10, symBinAddr: 0x1000122A4, symSize: 0x14 }
  - { offsetInCU: 0x7EA9, offset: 0x30A20, size: 0x8, addend: 0x0, symName: __ZNSt3__16vectorINS_12basic_stringIcNS_11char_traitsIcEENS_9allocatorIcEEEENS4_IS6_EEE11__make_iterB8ue170006EPS6_, symObjAddr: 0xE24, symBinAddr: 0x1000122B8, symSize: 0x30 }
  - { offsetInCU: 0x7EDC, offset: 0x30A53, size: 0x8, addend: 0x0, symName: __ZNSt3__111__wrap_iterIPNS_12basic_stringIcNS_11char_traitsIcEENS_9allocatorIcEEEEEC1B8ue170006ES7_, symObjAddr: 0xE54, symBinAddr: 0x1000122E8, symSize: 0x34 }
  - { offsetInCU: 0x7F12, offset: 0x30A89, size: 0x8, addend: 0x0, symName: __ZNSt3__111__wrap_iterIPNS_12basic_stringIcNS_11char_traitsIcEENS_9allocatorIcEEEEEC2B8ue170006ES7_, symObjAddr: 0xE88, symBinAddr: 0x10001231C, symSize: 0x20 }
  - { offsetInCU: 0x7F48, offset: 0x30ABF, size: 0x8, addend: 0x0, symName: __ZNKSt3__16vectorINS_12basic_stringIcNS_11char_traitsIcEENS_9allocatorIcEEEENS4_IS6_EEE6cbeginB8ue170006Ev, symObjAddr: 0xEF0, symBinAddr: 0x100012384, symSize: 0x2C }
  - { offsetInCU: 0x7F6C, offset: 0x30AE3, size: 0x8, addend: 0x0, symName: __ZNSt3__16vectorINS_12basic_stringIcNS_11char_traitsIcEENS_9allocatorIcEEEENS4_IS6_EEE17__destruct_at_endB8ue170006EPS6_, symObjAddr: 0xF1C, symBinAddr: 0x1000123B0, symSize: 0x4C }
  - { offsetInCU: 0x7FAE, offset: 0x30B25, size: 0x8, addend: 0x0, symName: __ZNKSt3__16vectorINS_12basic_stringIcNS_11char_traitsIcEENS_9allocatorIcEEEENS4_IS6_EEE17__annotate_shrinkB8ue170006Em, symObjAddr: 0xFA8, symBinAddr: 0x10001243C, symSize: 0xD0 }
  - { offsetInCU: 0x8004, offset: 0x30B7B, size: 0x8, addend: 0x0, symName: __ZNKSt3__111__move_loopINS_17_ClassicAlgPolicyEEclB8ue170006IPNS_12basic_stringIcNS_11char_traitsIcEENS_9allocatorIcEEEESA_SA_EENS_4pairIT_T1_EESC_T0_SD_, symObjAddr: 0x1214, symBinAddr: 0x1000126A8, symSize: 0x90 }
  - { offsetInCU: 0x8072, offset: 0x30BE9, size: 0x8, addend: 0x0, symName: __ZNSt3__18_IterOpsINS_17_ClassicAlgPolicyEE11__iter_moveB8ue170006IRPNS_12basic_stringIcNS_11char_traitsIcEENS_9allocatorIcEEEEEENS_9enable_ifIXsr12is_referenceIDTdeclsr3stdE7declvalIRT_EEEEE5valueEDTclsr3stdE4movedeclsr3stdE7declvalISE_EEEEE4typeEOSD_, symObjAddr: 0x1368, symBinAddr: 0x1000127FC, symSize: 0x28 }
  - { offsetInCU: 0x809D, offset: 0x30C14, size: 0x8, addend: 0x0, symName: __ZNSt3__18_IterOpsINS_17_ClassicAlgPolicyEE25__validate_iter_referenceB8ue170006IRPNS_12basic_stringIcNS_11char_traitsIcEENS_9allocatorIcEEEEEEvv, symObjAddr: 0x13C4, symBinAddr: 0x100012824, symSize: 0x4 }
  - { offsetInCU: 0x80BA, offset: 0x30C31, size: 0x8, addend: 0x0, symName: __ZNSt3__118__unwrap_iter_implIPNS_12basic_stringIcNS_11char_traitsIcEENS_9allocatorIcEEEELb1EE8__unwrapB8ue170006ES7_, symObjAddr: 0x179C, symBinAddr: 0x100012828, symSize: 0x24 }
  - { offsetInCU: 0x80E1, offset: 0x30C58, size: 0x8, addend: 0x0, symName: __ZNSt3__14pairIPNS_12basic_stringIcNS_11char_traitsIcEENS_9allocatorIcEEEES7_EC1B8ue170006IS7_S7_LPv0EEEOT_OT0_, symObjAddr: 0x17C0, symBinAddr: 0x10001284C, symSize: 0x3C }
  - { offsetInCU: 0x813E, offset: 0x30CB5, size: 0x8, addend: 0x0, symName: __ZNSt3__14pairIPNS_12basic_stringIcNS_11char_traitsIcEENS_9allocatorIcEEEES7_EC2B8ue170006IS7_S7_LPv0EEEOT_OT0_, symObjAddr: 0x17FC, symBinAddr: 0x100012888, symSize: 0x34 }
  - { offsetInCU: 0x819B, offset: 0x30D12, size: 0x8, addend: 0x0, symName: __ZNSt3__118__unwrap_iter_implIPNS_12basic_stringIcNS_11char_traitsIcEENS_9allocatorIcEEEELb1EE8__rewrapB8ue170006ES7_S7_, symObjAddr: 0x1830, symBinAddr: 0x1000128BC, symSize: 0x58 }
  - { offsetInCU: 0x81CB, offset: 0x30D42, size: 0x8, addend: 0x0, symName: __ZNSt3__16vectorINS_12basic_stringIcNS_11char_traitsIcEENS_9allocatorIcEEEENS4_IS6_EEE9__end_capB8ue170006Ev, symObjAddr: 0x1888, symBinAddr: 0x100012914, symSize: 0x28 }
  - { offsetInCU: 0x81EF, offset: 0x30D66, size: 0x8, addend: 0x0, symName: __ZNSt3__16vectorINS_12basic_stringIcNS_11char_traitsIcEENS_9allocatorIcEEEENS4_IS6_EEE22__construct_one_at_endB8ue170006IJRKS6_EEEvDpOT_, symObjAddr: 0x18B0, symBinAddr: 0x10001293C, symSize: 0x90 }
  - { offsetInCU: 0x823D, offset: 0x30DB4, size: 0x8, addend: 0x0, symName: __ZNSt3__16vectorINS_12basic_stringIcNS_11char_traitsIcEENS_9allocatorIcEEEENS4_IS6_EEE21__push_back_slow_pathIRKS6_EEvOT_, symObjAddr: 0x1940, symBinAddr: 0x1000129CC, symSize: 0xD8 }
  - { offsetInCU: 0x829A, offset: 0x30E11, size: 0x8, addend: 0x0, symName: __ZNSt3__117__compressed_pairIPNS_12basic_stringIcNS_11char_traitsIcEENS_9allocatorIcEEEENS4_IS6_EEE5firstB8ue170006Ev, symObjAddr: 0x1A18, symBinAddr: 0x100012AA4, symSize: 0x24 }
  - { offsetInCU: 0x82BE, offset: 0x30E35, size: 0x8, addend: 0x0, symName: __ZNSt3__122__compressed_pair_elemIPNS_12basic_stringIcNS_11char_traitsIcEENS_9allocatorIcEEEELi0ELb0EE5__getB8ue170006Ev, symObjAddr: 0x1A3C, symBinAddr: 0x100012AC8, symSize: 0x14 }
  - { offsetInCU: 0x82FB, offset: 0x30E72, size: 0x8, addend: 0x0, symName: __ZNSt3__16vectorINS_12basic_stringIcNS_11char_traitsIcEENS_9allocatorIcEEEENS4_IS6_EEE21_ConstructTransactionC1B8ue170006ERS8_m, symObjAddr: 0x1A50, symBinAddr: 0x100012ADC, symSize: 0x3C }
  - { offsetInCU: 0x8341, offset: 0x30EB8, size: 0x8, addend: 0x0, symName: __ZNSt3__116allocator_traitsINS_9allocatorINS_12basic_stringIcNS_11char_traitsIcEENS1_IcEEEEEEE9constructB8ue170006IS6_JRKS6_EvEEvRS7_PT_DpOT0_, symObjAddr: 0x1A8C, symBinAddr: 0x100012B18, symSize: 0x34 }
  - { offsetInCU: 0x839A, offset: 0x30F11, size: 0x8, addend: 0x0, symName: __ZNSt3__16vectorINS_12basic_stringIcNS_11char_traitsIcEENS_9allocatorIcEEEENS4_IS6_EEE21_ConstructTransactionD1B8ue170006Ev, symObjAddr: 0x1AC0, symBinAddr: 0x100012B4C, symSize: 0x2C }
  - { offsetInCU: 0x83C2, offset: 0x30F39, size: 0x8, addend: 0x0, symName: __ZNSt3__16vectorINS_12basic_stringIcNS_11char_traitsIcEENS_9allocatorIcEEEENS4_IS6_EEE21_ConstructTransactionC2B8ue170006ERS8_m, symObjAddr: 0x1AEC, symBinAddr: 0x100012B78, symSize: 0x4C }
  - { offsetInCU: 0x8408, offset: 0x30F7F, size: 0x8, addend: 0x0, symName: __ZNSt3__19allocatorINS_12basic_stringIcNS_11char_traitsIcEENS0_IcEEEEE9constructB8ue170006IS5_JRKS5_EEEvPT_DpOT0_, symObjAddr: 0x1B38, symBinAddr: 0x100012BC4, symSize: 0x30 }
  - { offsetInCU: 0x845E, offset: 0x30FD5, size: 0x8, addend: 0x0, symName: __ZNSt3__16vectorINS_12basic_stringIcNS_11char_traitsIcEENS_9allocatorIcEEEENS4_IS6_EEE21_ConstructTransactionD2B8ue170006Ev, symObjAddr: 0x1B68, symBinAddr: 0x100012BF4, symSize: 0x20 }
  - { offsetInCU: 0x8485, offset: 0x30FFC, size: 0x8, addend: 0x0, symName: __ZNKSt3__16vectorINS_12basic_stringIcNS_11char_traitsIcEENS_9allocatorIcEEEENS4_IS6_EEE11__recommendB8ue170006Em, symObjAddr: 0x1B88, symBinAddr: 0x100012C14, symSize: 0xB4 }
  - { offsetInCU: 0x84D9, offset: 0x31050, size: 0x8, addend: 0x0, symName: __ZNSt3__114__split_bufferINS_12basic_stringIcNS_11char_traitsIcEENS_9allocatorIcEEEERNS4_IS6_EEEC1EmmS8_, symObjAddr: 0x1C3C, symBinAddr: 0x100012CC8, symSize: 0x44 }
  - { offsetInCU: 0x852E, offset: 0x310A5, size: 0x8, addend: 0x0, symName: __ZNSt3__114__split_bufferINS_12basic_stringIcNS_11char_traitsIcEENS_9allocatorIcEEEERNS4_IS6_EEED1Ev, symObjAddr: 0x1D90, symBinAddr: 0x100012E1C, symSize: 0x2C }
  - { offsetInCU: 0x8558, offset: 0x310CF, size: 0x8, addend: 0x0, symName: __ZNKSt3__16vectorINS_12basic_stringIcNS_11char_traitsIcEENS_9allocatorIcEEEENS4_IS6_EEE8max_sizeEv, symObjAddr: 0x1DBC, symBinAddr: 0x100012E48, symSize: 0x60 }
  - { offsetInCU: 0x857F, offset: 0x310F6, size: 0x8, addend: 0x0, symName: __ZNKSt3__16vectorINS_12basic_stringIcNS_11char_traitsIcEENS_9allocatorIcEEEENS4_IS6_EEE20__throw_length_errorB8ue170006Ev, symObjAddr: 0x1E1C, symBinAddr: 0x100012EA8, symSize: 0x1C }
  - { offsetInCU: 0x85AD, offset: 0x31124, size: 0x8, addend: 0x0, symName: __ZNSt3__116allocator_traitsINS_9allocatorINS_12basic_stringIcNS_11char_traitsIcEENS1_IcEEEEEEE8max_sizeB8ue170006IS7_vEEmRKS7_, symObjAddr: 0x1E90, symBinAddr: 0x100012EC4, symSize: 0x24 }
  - { offsetInCU: 0x85DB, offset: 0x31152, size: 0x8, addend: 0x0, symName: __ZNKSt3__16vectorINS_12basic_stringIcNS_11char_traitsIcEENS_9allocatorIcEEEENS4_IS6_EEE7__allocB8ue170006Ev, symObjAddr: 0x1EB4, symBinAddr: 0x100012EE8, symSize: 0x28 }
  - { offsetInCU: 0x85FF, offset: 0x31176, size: 0x8, addend: 0x0, symName: __ZNKSt3__19allocatorINS_12basic_stringIcNS_11char_traitsIcEENS0_IcEEEEE8max_sizeB8ue170006Ev, symObjAddr: 0x1F78, symBinAddr: 0x100012F10, symSize: 0x18 }
  - { offsetInCU: 0x8623, offset: 0x3119A, size: 0x8, addend: 0x0, symName: __ZNKSt3__117__compressed_pairIPNS_12basic_stringIcNS_11char_traitsIcEENS_9allocatorIcEEEENS4_IS6_EEE6secondB8ue170006Ev, symObjAddr: 0x1F90, symBinAddr: 0x100012F28, symSize: 0x24 }
  - { offsetInCU: 0x8647, offset: 0x311BE, size: 0x8, addend: 0x0, symName: __ZNKSt3__122__compressed_pair_elemINS_9allocatorINS_12basic_stringIcNS_11char_traitsIcEENS1_IcEEEEEELi1ELb1EE5__getB8ue170006Ev, symObjAddr: 0x1FB4, symBinAddr: 0x100012F4C, symSize: 0x14 }
  - { offsetInCU: 0x866B, offset: 0x311E2, size: 0x8, addend: 0x0, symName: __ZNSt3__114__split_bufferINS_12basic_stringIcNS_11char_traitsIcEENS_9allocatorIcEEEERNS4_IS6_EEEC2EmmS8_, symObjAddr: 0x2108, symBinAddr: 0x100012F60, symSize: 0xE0 }
  - { offsetInCU: 0x86DE, offset: 0x31255, size: 0x8, addend: 0x0, symName: __ZNSt3__117__compressed_pairIPNS_12basic_stringIcNS_11char_traitsIcEENS_9allocatorIcEEEERNS4_IS6_EEEC1B8ue170006IDnS9_EEOT_OT0_, symObjAddr: 0x21E8, symBinAddr: 0x100013040, symSize: 0x3C }
  - { offsetInCU: 0x8734, offset: 0x312AB, size: 0x8, addend: 0x0, symName: __ZNSt3__114__split_bufferINS_12basic_stringIcNS_11char_traitsIcEENS_9allocatorIcEEEERNS4_IS6_EEE7__allocB8ue170006Ev, symObjAddr: 0x2264, symBinAddr: 0x1000130BC, symSize: 0x28 }
  - { offsetInCU: 0x8758, offset: 0x312CF, size: 0x8, addend: 0x0, symName: __ZNSt3__114__split_bufferINS_12basic_stringIcNS_11char_traitsIcEENS_9allocatorIcEEEERNS4_IS6_EEE9__end_capB8ue170006Ev, symObjAddr: 0x228C, symBinAddr: 0x1000130E4, symSize: 0x28 }
  - { offsetInCU: 0x877C, offset: 0x312F3, size: 0x8, addend: 0x0, symName: __ZNSt3__117__compressed_pairIPNS_12basic_stringIcNS_11char_traitsIcEENS_9allocatorIcEEEERNS4_IS6_EEEC2B8ue170006IDnS9_EEOT_OT0_, symObjAddr: 0x22B4, symBinAddr: 0x10001310C, symSize: 0x48 }
  - { offsetInCU: 0x87D2, offset: 0x31349, size: 0x8, addend: 0x0, symName: __ZNSt3__122__compressed_pair_elemIRNS_9allocatorINS_12basic_stringIcNS_11char_traitsIcEENS1_IcEEEEEELi1ELb0EEC2B8ue170006IS8_vEEOT_, symObjAddr: 0x22FC, symBinAddr: 0x100013154, symSize: 0x20 }
  - { offsetInCU: 0x8813, offset: 0x3138A, size: 0x8, addend: 0x0, symName: __ZNSt3__19allocatorINS_12basic_stringIcNS_11char_traitsIcEENS0_IcEEEEE8allocateB8ue170006Em, symObjAddr: 0x231C, symBinAddr: 0x100013174, symSize: 0x5C }
  - { offsetInCU: 0x8845, offset: 0x313BC, size: 0x8, addend: 0x0, symName: __ZNSt3__117__compressed_pairIPNS_12basic_stringIcNS_11char_traitsIcEENS_9allocatorIcEEEERNS4_IS6_EEE6secondB8ue170006Ev, symObjAddr: 0x245C, symBinAddr: 0x1000131D0, symSize: 0x28 }
  - { offsetInCU: 0x8869, offset: 0x313E0, size: 0x8, addend: 0x0, symName: __ZNSt3__122__compressed_pair_elemIRNS_9allocatorINS_12basic_stringIcNS_11char_traitsIcEENS1_IcEEEEEELi1ELb0EE5__getB8ue170006Ev, symObjAddr: 0x2484, symBinAddr: 0x1000131F8, symSize: 0x18 }
  - { offsetInCU: 0x888D, offset: 0x31404, size: 0x8, addend: 0x0, symName: __ZNSt3__117__compressed_pairIPNS_12basic_stringIcNS_11char_traitsIcEENS_9allocatorIcEEEERNS4_IS6_EEE5firstB8ue170006Ev, symObjAddr: 0x249C, symBinAddr: 0x100013210, symSize: 0x24 }
  - { offsetInCU: 0x88B1, offset: 0x31428, size: 0x8, addend: 0x0, symName: __ZNSt3__116reverse_iteratorIPNS_12basic_stringIcNS_11char_traitsIcEENS_9allocatorIcEEEEEC1B8ue170006ES7_, symObjAddr: 0x25EC, symBinAddr: 0x100013360, symSize: 0x34 }
  - { offsetInCU: 0x88E7, offset: 0x3145E, size: 0x8, addend: 0x0, symName: __ZNKSt3__116reverse_iteratorIPNS_12basic_stringIcNS_11char_traitsIcEENS_9allocatorIcEEEEE4baseB8ue170006Ev, symObjAddr: 0x2620, symBinAddr: 0x100013394, symSize: 0x18 }
  - { offsetInCU: 0x890B, offset: 0x31482, size: 0x8, addend: 0x0, symName: __ZNKSt3__16vectorINS_12basic_stringIcNS_11char_traitsIcEENS_9allocatorIcEEEENS4_IS6_EEE14__annotate_newB8ue170006Em, symObjAddr: 0x2674, symBinAddr: 0x1000133E8, symSize: 0xC8 }
  - { offsetInCU: 0x893E, offset: 0x314B5, size: 0x8, addend: 0x0, symName: __ZNSt3__129_AllocatorDestroyRangeReverseINS_9allocatorINS_12basic_stringIcNS_11char_traitsIcEENS1_IcEEEEEENS_16reverse_iteratorIPS6_EEEC1B8ue170006ERS7_RSA_SD_, symObjAddr: 0x2788, symBinAddr: 0x1000134FC, symSize: 0x44 }
  - { offsetInCU: 0x8993, offset: 0x3150A, size: 0x8, addend: 0x0, symName: __ZNSt3__116allocator_traitsINS_9allocatorINS_12basic_stringIcNS_11char_traitsIcEENS1_IcEEEEEEE9constructB8ue170006IS6_JS6_EvEEvRS7_PT_DpOT0_, symObjAddr: 0x2814, symBinAddr: 0x100013588, symSize: 0x34 }
  - { offsetInCU: 0x89EC, offset: 0x31563, size: 0x8, addend: 0x0, symName: __ZNKSt3__116reverse_iteratorIPNS_12basic_stringIcNS_11char_traitsIcEENS_9allocatorIcEEEEEdeB8ue170006Ev, symObjAddr: 0x286C, symBinAddr: 0x1000135E0, symSize: 0x28 }
  - { offsetInCU: 0x8A1F, offset: 0x31596, size: 0x8, addend: 0x0, symName: __ZNSt3__116reverse_iteratorIPNS_12basic_stringIcNS_11char_traitsIcEENS_9allocatorIcEEEEEppB8ue170006Ev, symObjAddr: 0x2894, symBinAddr: 0x100013608, symSize: 0x20 }
  - { offsetInCU: 0x8A43, offset: 0x315BA, size: 0x8, addend: 0x0, symName: __ZNSt3__128__exception_guard_exceptionsINS_29_AllocatorDestroyRangeReverseINS_9allocatorINS_12basic_stringIcNS_11char_traitsIcEENS2_IcEEEEEENS_16reverse_iteratorIPS7_EEEEE10__completeB8ue170006Ev, symObjAddr: 0x28B4, symBinAddr: 0x100013628, symSize: 0x1C }
  - { offsetInCU: 0x8A67, offset: 0x315DE, size: 0x8, addend: 0x0, symName: __ZNSt3__128__exception_guard_exceptionsINS_29_AllocatorDestroyRangeReverseINS_9allocatorINS_12basic_stringIcNS_11char_traitsIcEENS2_IcEEEEEENS_16reverse_iteratorIPS7_EEEEED1B8ue170006Ev, symObjAddr: 0x28D0, symBinAddr: 0x100013644, symSize: 0x2C }
  - { offsetInCU: 0x8A8F, offset: 0x31606, size: 0x8, addend: 0x0, symName: __ZNSt3__128__exception_guard_exceptionsINS_29_AllocatorDestroyRangeReverseINS_9allocatorINS_12basic_stringIcNS_11char_traitsIcEENS2_IcEEEEEENS_16reverse_iteratorIPS7_EEEEEC1B8ue170006ESC_, symObjAddr: 0x28FC, symBinAddr: 0x100013670, symSize: 0x34 }
  - { offsetInCU: 0x8AC6, offset: 0x3163D, size: 0x8, addend: 0x0, symName: __ZNSt3__128__exception_guard_exceptionsINS_29_AllocatorDestroyRangeReverseINS_9allocatorINS_12basic_stringIcNS_11char_traitsIcEENS2_IcEEEEEENS_16reverse_iteratorIPS7_EEEEEC2B8ue170006ESC_, symObjAddr: 0x2930, symBinAddr: 0x1000136A4, symSize: 0x30 }
  - { offsetInCU: 0x8AFD, offset: 0x31674, size: 0x8, addend: 0x0, symName: __ZNSt3__129_AllocatorDestroyRangeReverseINS_9allocatorINS_12basic_stringIcNS_11char_traitsIcEENS1_IcEEEEEENS_16reverse_iteratorIPS6_EEEC2B8ue170006ERS7_RSA_SD_, symObjAddr: 0x2960, symBinAddr: 0x1000136D4, symSize: 0x38 }
  - { offsetInCU: 0x8B52, offset: 0x316C9, size: 0x8, addend: 0x0, symName: __ZNSt3__19allocatorINS_12basic_stringIcNS_11char_traitsIcEENS0_IcEEEEE9constructB8ue170006IS5_JS5_EEEvPT_DpOT0_, symObjAddr: 0x2998, symBinAddr: 0x10001370C, symSize: 0x30 }
  - { offsetInCU: 0x8BAD, offset: 0x31724, size: 0x8, addend: 0x0, symName: __ZNSt3__119__to_address_helperINS_16reverse_iteratorIPNS_12basic_stringIcNS_11char_traitsIcEENS_9allocatorIcEEEEEEvE6__callB8ue170006ERKS9_, symObjAddr: 0x2A8C, symBinAddr: 0x10001373C, symSize: 0x38 }
  - { offsetInCU: 0x8BCF, offset: 0x31746, size: 0x8, addend: 0x0, symName: __ZNKSt3__116reverse_iteratorIPNS_12basic_stringIcNS_11char_traitsIcEENS_9allocatorIcEEEEEptB8ue170006Ev, symObjAddr: 0x2AC4, symBinAddr: 0x100013774, symSize: 0x24 }
  - { offsetInCU: 0x8BF3, offset: 0x3176A, size: 0x8, addend: 0x0, symName: __ZNSt3__128__exception_guard_exceptionsINS_29_AllocatorDestroyRangeReverseINS_9allocatorINS_12basic_stringIcNS_11char_traitsIcEENS2_IcEEEEEENS_16reverse_iteratorIPS7_EEEEED2B8ue170006Ev, symObjAddr: 0x2AE8, symBinAddr: 0x100013798, symSize: 0x50 }
  - { offsetInCU: 0x8C1B, offset: 0x31792, size: 0x8, addend: 0x0, symName: __ZNKSt3__129_AllocatorDestroyRangeReverseINS_9allocatorINS_12basic_stringIcNS_11char_traitsIcEENS1_IcEEEEEENS_16reverse_iteratorIPS6_EEEclB8ue170006Ev, symObjAddr: 0x2B38, symBinAddr: 0x1000137E8, symSize: 0xB4 }
  - { offsetInCU: 0x8C40, offset: 0x317B7, size: 0x8, addend: 0x0, symName: __ZNSt3__116reverse_iteratorINS0_IPNS_12basic_stringIcNS_11char_traitsIcEENS_9allocatorIcEEEEEEEC1B8ue170006ES8_, symObjAddr: 0x2C5C, symBinAddr: 0x10001390C, symSize: 0x3C }
  - { offsetInCU: 0x8C76, offset: 0x317ED, size: 0x8, addend: 0x0, symName: __ZNSt3__116reverse_iteratorINS0_IPNS_12basic_stringIcNS_11char_traitsIcEENS_9allocatorIcEEEEEEEppB8ue170006Ev, symObjAddr: 0x2D1C, symBinAddr: 0x1000139CC, symSize: 0x30 }
  - { offsetInCU: 0x8C9A, offset: 0x31811, size: 0x8, addend: 0x0, symName: __ZNKSt3__116reverse_iteratorINS0_IPNS_12basic_stringIcNS_11char_traitsIcEENS_9allocatorIcEEEEEEE4baseB8ue170006Ev, symObjAddr: 0x2D4C, symBinAddr: 0x1000139FC, symSize: 0x24 }
  - { offsetInCU: 0x8CC3, offset: 0x3183A, size: 0x8, addend: 0x0, symName: __ZNSt3__119__to_address_helperINS_16reverse_iteratorINS1_IPNS_12basic_stringIcNS_11char_traitsIcEENS_9allocatorIcEEEEEEEEvE6__callB8ue170006ERKSA_, symObjAddr: 0x2D70, symBinAddr: 0x100013A20, symSize: 0x38 }
  - { offsetInCU: 0x8CE5, offset: 0x3185C, size: 0x8, addend: 0x0, symName: __ZNKSt3__116reverse_iteratorINS0_IPNS_12basic_stringIcNS_11char_traitsIcEENS_9allocatorIcEEEEEEEptB8ue170006Ev, symObjAddr: 0x2DA8, symBinAddr: 0x100013A58, symSize: 0x24 }
  - { offsetInCU: 0x8D09, offset: 0x31880, size: 0x8, addend: 0x0, symName: __ZNKSt3__116reverse_iteratorINS0_IPNS_12basic_stringIcNS_11char_traitsIcEENS_9allocatorIcEEEEEEEdeB8ue170006Ev, symObjAddr: 0x2DCC, symBinAddr: 0x100013A7C, symSize: 0x34 }
  - { offsetInCU: 0x8D3C, offset: 0x318B3, size: 0x8, addend: 0x0, symName: __ZNSt3__116reverse_iteratorIPNS_12basic_stringIcNS_11char_traitsIcEENS_9allocatorIcEEEEEmmB8ue170006Ev, symObjAddr: 0x2E00, symBinAddr: 0x100013AB0, symSize: 0x20 }
  - { offsetInCU: 0x8D60, offset: 0x318D7, size: 0x8, addend: 0x0, symName: __ZNSt3__116reverse_iteratorINS0_IPNS_12basic_stringIcNS_11char_traitsIcEENS_9allocatorIcEEEEEEEC2B8ue170006ES8_, symObjAddr: 0x2E20, symBinAddr: 0x100013AD0, symSize: 0x2C }
  - { offsetInCU: 0x8D96, offset: 0x3190D, size: 0x8, addend: 0x0, symName: __ZNSt3__116reverse_iteratorIPNS_12basic_stringIcNS_11char_traitsIcEENS_9allocatorIcEEEEEC2B8ue170006ES7_, symObjAddr: 0x2E4C, symBinAddr: 0x100013AFC, symSize: 0x28 }
  - { offsetInCU: 0x8DCC, offset: 0x31943, size: 0x8, addend: 0x0, symName: __ZNSt3__114__split_bufferINS_12basic_stringIcNS_11char_traitsIcEENS_9allocatorIcEEEERNS4_IS6_EEED2Ev, symObjAddr: 0x2E74, symBinAddr: 0x100013B24, symSize: 0x8C }
  - { offsetInCU: 0x8DF7, offset: 0x3196E, size: 0x8, addend: 0x0, symName: __ZNSt3__114__split_bufferINS_12basic_stringIcNS_11char_traitsIcEENS_9allocatorIcEEEERNS4_IS6_EEE5clearB8ue170006Ev, symObjAddr: 0x2F00, symBinAddr: 0x100013BB0, symSize: 0x28 }
  - { offsetInCU: 0x8E1B, offset: 0x31992, size: 0x8, addend: 0x0, symName: __ZNKSt3__114__split_bufferINS_12basic_stringIcNS_11char_traitsIcEENS_9allocatorIcEEEERNS4_IS6_EEE8capacityB8ue170006Ev, symObjAddr: 0x2F28, symBinAddr: 0x100013BD8, symSize: 0x40 }
  - { offsetInCU: 0x8E3F, offset: 0x319B6, size: 0x8, addend: 0x0, symName: __ZNSt3__114__split_bufferINS_12basic_stringIcNS_11char_traitsIcEENS_9allocatorIcEEEERNS4_IS6_EEE17__destruct_at_endB8ue170006EPS6_, symObjAddr: 0x2F68, symBinAddr: 0x100013C18, symSize: 0x2C }
  - { offsetInCU: 0x8E70, offset: 0x319E7, size: 0x8, addend: 0x0, symName: __ZNSt3__114__split_bufferINS_12basic_stringIcNS_11char_traitsIcEENS_9allocatorIcEEEERNS4_IS6_EEE17__destruct_at_endB8ue170006EPS6_NS_17integral_constantIbLb0EEE, symObjAddr: 0x2F94, symBinAddr: 0x100013C44, symSize: 0x80 }
  - { offsetInCU: 0x8EAF, offset: 0x31A26, size: 0x8, addend: 0x0, symName: __ZNKSt3__114__split_bufferINS_12basic_stringIcNS_11char_traitsIcEENS_9allocatorIcEEEERNS4_IS6_EEE9__end_capB8ue170006Ev, symObjAddr: 0x3014, symBinAddr: 0x100013CC4, symSize: 0x28 }
  - { offsetInCU: 0x8ED3, offset: 0x31A4A, size: 0x8, addend: 0x0, symName: __ZNKSt3__117__compressed_pairIPNS_12basic_stringIcNS_11char_traitsIcEENS_9allocatorIcEEEERNS4_IS6_EEE5firstB8ue170006Ev, symObjAddr: 0x303C, symBinAddr: 0x100013CEC, symSize: 0x24 }
  - { offsetInCU: 0x8EF7, offset: 0x31A6E, size: 0x8, addend: 0x0, symName: __ZNKSt3__16vectorINS_12basic_stringIcNS_11char_traitsIcEENS_9allocatorIcEEEENS4_IS6_EEE11__make_iterB8ue170006EPKS6_, symObjAddr: 0x3060, symBinAddr: 0x100013D10, symSize: 0x30 }
  - { offsetInCU: 0x8F2A, offset: 0x31AA1, size: 0x8, addend: 0x0, symName: __ZNSt3__111__wrap_iterIPKNS_12basic_stringIcNS_11char_traitsIcEENS_9allocatorIcEEEEEC1B8ue170006ES8_, symObjAddr: 0x3090, symBinAddr: 0x100013D40, symSize: 0x34 }
  - { offsetInCU: 0x8F60, offset: 0x31AD7, size: 0x8, addend: 0x0, symName: __ZNSt3__111__wrap_iterIPKNS_12basic_stringIcNS_11char_traitsIcEENS_9allocatorIcEEEEEC2B8ue170006ES8_, symObjAddr: 0x30C4, symBinAddr: 0x100013D74, symSize: 0x20 }
  - { offsetInCU: 0x46, offset: 0x31BE8, size: 0x8, addend: 0x0, symName: __Z19generujLiczbeLosowamm, symObjAddr: 0x9FC, symBinAddr: 0x10001470C, symSize: 0x1E0 }
  - { offsetInCU: 0x6F, offset: 0x31C11, size: 0x8, addend: 0x0, symName: __ZZ19generujLiczbeLosowammE4seed, symObjAddr: 0x21270, symBinAddr: 0x10001C9A0, symSize: 0x0 }
  - { offsetInCU: 0x85, offset: 0x31C27, size: 0x8, addend: 0x0, symName: __ZZ19generujLiczbeLosowammE6engine, symObjAddr: 0x21280, symBinAddr: 0x10001C9B0, symSize: 0x0 }
  - { offsetInCU: 0x9B, offset: 0x31C3D, size: 0x8, addend: 0x0, symName: __ZZ19generujLiczbeLosowammE11uniformDist, symObjAddr: 0x21C50, symBinAddr: 0x10001D380, symSize: 0x0 }
  - { offsetInCU: 0x4BAD, offset: 0x3674F, size: 0x8, addend: 0x0, symName: __ZNSt3__1plB8ue170006IcNS_11char_traitsIcEENS_9allocatorIcEEEENS_12basic_stringIT_T0_T1_EEPKS6_OS9_, symObjAddr: 0x9B8, symBinAddr: 0x1000146C8, symSize: 0x44 }
  - { offsetInCU: 0x4D9D, offset: 0x3693F, size: 0x8, addend: 0x0, symName: _nImiona, symObjAddr: 0x2ED0, symBinAddr: 0x100017660, symSize: 0x0 }
  - { offsetInCU: 0x4DB3, offset: 0x36955, size: 0x8, addend: 0x0, symName: _nNazwiska, symObjAddr: 0x2ED8, symBinAddr: 0x100017668, symSize: 0x0 }
  - { offsetInCU: 0x4DC9, offset: 0x3696B, size: 0x8, addend: 0x0, symName: _nUlice, symObjAddr: 0x2EE0, symBinAddr: 0x100017670, symSize: 0x0 }
  - { offsetInCU: 0x4DDF, offset: 0x36981, size: 0x8, addend: 0x0, symName: _nEmaile, symObjAddr: 0x2EE8, symBinAddr: 0x100017678, symSize: 0x0 }
  - { offsetInCU: 0x4DF5, offset: 0x36997, size: 0x8, addend: 0x0, symName: _nWydawnictwa, symObjAddr: 0x2EF0, symBinAddr: 0x100017680, symSize: 0x0 }
  - { offsetInCU: 0x4E0B, offset: 0x369AD, size: 0x8, addend: 0x0, symName: _nTytuly, symObjAddr: 0x2EF8, symBinAddr: 0x100017688, symSize: 0x0 }
  - { offsetInCU: 0x4E21, offset: 0x369C3, size: 0x8, addend: 0x0, symName: _nDzialy, symObjAddr: 0x2F00, symBinAddr: 0x100017690, symSize: 0x0 }
  - { offsetInCU: 0x4E37, offset: 0x369D9, size: 0x8, addend: 0x0, symName: _Imiona, symObjAddr: 0x2F08, symBinAddr: 0x10001C000, symSize: 0x0 }
  - { offsetInCU: 0x4E59, offset: 0x369FB, size: 0x8, addend: 0x0, symName: _Nazwiska, symObjAddr: 0x3068, symBinAddr: 0x10001C160, symSize: 0x0 }
  - { offsetInCU: 0x4E7B, offset: 0x36A1D, size: 0x8, addend: 0x0, symName: _Ulice, symObjAddr: 0x3178, symBinAddr: 0x10001C270, symSize: 0x0 }
  - { offsetInCU: 0x4E91, offset: 0x36A33, size: 0x8, addend: 0x0, symName: _Emaile, symObjAddr: 0x32D8, symBinAddr: 0x10001C3D0, symSize: 0x0 }
  - { offsetInCU: 0x4EB3, offset: 0x36A55, size: 0x8, addend: 0x0, symName: _Wydawnictwa, symObjAddr: 0x3398, symBinAddr: 0x10001C490, symSize: 0x0 }
  - { offsetInCU: 0x4EC9, offset: 0x36A6B, size: 0x8, addend: 0x0, symName: _Dzialy, symObjAddr: 0x3458, symBinAddr: 0x10001C550, symSize: 0x0 }
  - { offsetInCU: 0x4EEB, offset: 0x36A8D, size: 0x8, addend: 0x0, symName: _Tytuly1, symObjAddr: 0x34F8, symBinAddr: 0x10001C5F0, symSize: 0x0 }
  - { offsetInCU: 0x4F0D, offset: 0x36AAF, size: 0x8, addend: 0x0, symName: _Tytuly2, symObjAddr: 0x3638, symBinAddr: 0x10001C730, symSize: 0x0 }
  - { offsetInCU: 0x5084, offset: 0x36C26, size: 0x8, addend: 0x0, symName: __ZNSt3__124uniform_int_distributionImEclINS_23mersenne_twister_engineIjLm32ELm624ELm397ELm31ELj2567483615ELm11ELj4294967295ELm7ELj2636928640ELm15ELj4022730752ELm18ELj1812433253EEEEEmRT_RKNS1_10param_typeE, symObjAddr: 0x1ADC, symBinAddr: 0x100014A60, symSize: 0x174 }
  - { offsetInCU: 0x6F27, offset: 0x38AC9, size: 0x8, addend: 0x0, symName: __Z10menuGlownev, symObjAddr: 0x0, symBinAddr: 0x100013D94, symSize: 0x1F0 }
  - { offsetInCU: 0x6F56, offset: 0x38AF8, size: 0x8, addend: 0x0, symName: __Z15menuCzytelnikowv, symObjAddr: 0x284, symBinAddr: 0x100013F94, symSize: 0x398 }
  - { offsetInCU: 0x6FBF, offset: 0x38B61, size: 0x8, addend: 0x0, symName: __Z11menuKsiazekv, symObjAddr: 0x638, symBinAddr: 0x100014348, symSize: 0x368 }
  - { offsetInCU: 0x7028, offset: 0x38BCA, size: 0x8, addend: 0x0, symName: __ZNSt3__123mersenne_twister_engineIjLm32ELm624ELm397ELm31ELj2567483615ELm11ELj4294967295ELm7ELj2636928640ELm15ELj4022730752ELm18ELj1812433253EEC1B8ue170006Ej, symObjAddr: 0xC50, symBinAddr: 0x1000148EC, symSize: 0x34 }
  - { offsetInCU: 0x705E, offset: 0x38C00, size: 0x8, addend: 0x0, symName: __ZNSt3__124uniform_int_distributionImEclB8ue170006INS_23mersenne_twister_engineIjLm32ELm624ELm397ELm31ELj2567483615ELm11ELj4294967295ELm7ELj2636928640ELm15ELj4022730752ELm18ELj1812433253EEEEEmRT_, symObjAddr: 0xCC0, symBinAddr: 0x100014920, symSize: 0x30 }
  - { offsetInCU: 0x70B7, offset: 0x38C59, size: 0x8, addend: 0x0, symName: __ZNSt3__123mersenne_twister_engineIjLm32ELm624ELm397ELm31ELj2567483615ELm11ELj4294967295ELm7ELj2636928640ELm15ELj4022730752ELm18ELj1812433253EEC2B8ue170006Ej, symObjAddr: 0x1928, symBinAddr: 0x100014950, symSize: 0x34 }
  - { offsetInCU: 0x70ED, offset: 0x38C8F, size: 0x8, addend: 0x0, symName: __ZNSt3__123mersenne_twister_engineIjLm32ELm624ELm397ELm31ELj2567483615ELm11ELj4294967295ELm7ELj2636928640ELm15ELj4022730752ELm18ELj1812433253EE4seedEj, symObjAddr: 0x195C, symBinAddr: 0x100014984, symSize: 0xC4 }
  - { offsetInCU: 0x713F, offset: 0x38CE1, size: 0x8, addend: 0x0, symName: __ZNSt3__123mersenne_twister_engineIjLm32ELm624ELm397ELm31ELj2567483615ELm11ELj4294967295ELm7ELj2636928640ELm15ELj4022730752ELm18ELj1812433253EE8__rshiftB8ue170006ILm30EEENS_9enable_ifIXltT_L_ZNS1_3_DtEEEjE4typeEj, symObjAddr: 0x1A20, symBinAddr: 0x100014A48, symSize: 0x18 }
  - { offsetInCU: 0x716B, offset: 0x38D0D, size: 0x8, addend: 0x0, symName: __ZNSt3__125__independent_bits_engineINS_23mersenne_twister_engineIjLm32ELm624ELm397ELm31ELj2567483615ELm11ELj4294967295ELm7ELj2636928640ELm15ELj4022730752ELm18ELj1812433253EEEmEC1ERS2_m, symObjAddr: 0x1C80, symBinAddr: 0x100014BD4, symSize: 0x3C }
  - { offsetInCU: 0x71B1, offset: 0x38D53, size: 0x8, addend: 0x0, symName: __ZNSt3__125__independent_bits_engineINS_23mersenne_twister_engineIjLm32ELm624ELm397ELm31ELj2567483615ELm11ELj4294967295ELm7ELj2636928640ELm15ELj4022730752ELm18ELj1812433253EEEmEclB8ue170006Ev, symObjAddr: 0x1CBC, symBinAddr: 0x100014C10, symSize: 0x24 }
  - { offsetInCU: 0x71D5, offset: 0x38D77, size: 0x8, addend: 0x0, symName: __ZNSt3__125__independent_bits_engineINS_23mersenne_twister_engineIjLm32ELm624ELm397ELm31ELj2567483615ELm11ELj4294967295ELm7ELj2636928640ELm15ELj4022730752ELm18ELj1812433253EEEmEC2ERS2_m, symObjAddr: 0x1D48, symBinAddr: 0x100014C34, symSize: 0x264 }
  - { offsetInCU: 0x721A, offset: 0x38DBC, size: 0x8, addend: 0x0, symName: __ZNSt3__125__independent_bits_engineINS_23mersenne_twister_engineIjLm32ELm624ELm397ELm31ELj2567483615ELm11ELj4294967295ELm7ELj2636928640ELm15ELj4022730752ELm18ELj1812433253EEEmE6__evalENS_17integral_constantIbLb1EEE, symObjAddr: 0x1FAC, symBinAddr: 0x100014E98, symSize: 0x1F0 }
  - { offsetInCU: 0x72E1, offset: 0x38E83, size: 0x8, addend: 0x0, symName: __ZNSt3__123mersenne_twister_engineIjLm32ELm624ELm397ELm31ELj2567483615ELm11ELj4294967295ELm7ELj2636928640ELm15ELj4022730752ELm18ELj1812433253EEclEv, symObjAddr: 0x219C, symBinAddr: 0x100015088, symSize: 0x14C }
  - { offsetInCU: 0x7352, offset: 0x38EF4, size: 0x8, addend: 0x0, symName: __ZNSt3__123mersenne_twister_engineIjLm32ELm624ELm397ELm31ELj2567483615ELm11ELj4294967295ELm7ELj2636928640ELm15ELj4022730752ELm18ELj1812433253EE3minB8ue170006Ev, symObjAddr: 0x22E8, symBinAddr: 0x1000151D4, symSize: 0x8 }
  - { offsetInCU: 0x7365, offset: 0x38F07, size: 0x8, addend: 0x0, symName: __ZNSt3__123mersenne_twister_engineIjLm32ELm624ELm397ELm31ELj2567483615ELm11ELj4294967295ELm7ELj2636928640ELm15ELj4022730752ELm18ELj1812433253EE8__rshiftB8ue170006ILm1EEENS_9enable_ifIXltT_L_ZNS1_3_DtEEEjE4typeEj, symObjAddr: 0x22F0, symBinAddr: 0x1000151DC, symSize: 0x18 }
  - { offsetInCU: 0x7391, offset: 0x38F33, size: 0x8, addend: 0x0, symName: __ZNSt3__123mersenne_twister_engineIjLm32ELm624ELm397ELm31ELj2567483615ELm11ELj4294967295ELm7ELj2636928640ELm15ELj4022730752ELm18ELj1812433253EE8__rshiftB8ue170006ILm11EEENS_9enable_ifIXltT_L_ZNS1_3_DtEEEjE4typeEj, symObjAddr: 0x2308, symBinAddr: 0x1000151F4, symSize: 0x18 }
  - { offsetInCU: 0x73BD, offset: 0x38F5F, size: 0x8, addend: 0x0, symName: __ZNSt3__123mersenne_twister_engineIjLm32ELm624ELm397ELm31ELj2567483615ELm11ELj4294967295ELm7ELj2636928640ELm15ELj4022730752ELm18ELj1812433253EE8__lshiftB8ue170006ILm7EEENS_9enable_ifIXltT_Lm32EEjE4typeEj, symObjAddr: 0x2320, symBinAddr: 0x10001520C, symSize: 0x1C }
  - { offsetInCU: 0x73E9, offset: 0x38F8B, size: 0x8, addend: 0x0, symName: __ZNSt3__123mersenne_twister_engineIjLm32ELm624ELm397ELm31ELj2567483615ELm11ELj4294967295ELm7ELj2636928640ELm15ELj4022730752ELm18ELj1812433253EE8__lshiftB8ue170006ILm15EEENS_9enable_ifIXltT_Lm32EEjE4typeEj, symObjAddr: 0x233C, symBinAddr: 0x100015228, symSize: 0x1C }
  - { offsetInCU: 0x7415, offset: 0x38FB7, size: 0x8, addend: 0x0, symName: __ZNSt3__123mersenne_twister_engineIjLm32ELm624ELm397ELm31ELj2567483615ELm11ELj4294967295ELm7ELj2636928640ELm15ELj4022730752ELm18ELj1812433253EE8__rshiftB8ue170006ILm18EEENS_9enable_ifIXltT_L_ZNS1_3_DtEEEjE4typeEj, symObjAddr: 0x2358, symBinAddr: 0x100015244, symSize: 0x18 }
...
